   1              	 .syntax unified
   2              	 .cpu cortex-m4
   3              	 .eabi_attribute 27,3
   4              	 .fpu fpv4-sp-d16
   5              	 .eabi_attribute 20,1
   6              	 .eabi_attribute 21,1
   7              	 .eabi_attribute 23,3
   8              	 .eabi_attribute 24,1
   9              	 .eabi_attribute 25,1
  10              	 .eabi_attribute 26,1
  11              	 .eabi_attribute 30,6
  12              	 .eabi_attribute 34,1
  13              	 .eabi_attribute 18,4
  14              	 .thumb
  15              	 .file "main.c"
  16              	 .text
  17              	.Ltext0:
  18              	 .cfi_sections .debug_frame
  19              	 .section .text.XMC_GPIO_SetOutputHigh,"ax",%progbits
  20              	 .align 2
  21              	 .thumb
  22              	 .thumb_func
  24              	XMC_GPIO_SetOutputHigh:
  25              	.LFB164:
  26              	 .file 1 "C:/Users/Mafish/Documents/GitHub/MAB_Driver/Libraries/XMCLib/inc/xmc_gpio.h"
   1:C:/Users/Mafish/Documents/GitHub/MAB_Driver/Libraries/XMCLib/inc\xmc_gpio.h **** /**
   2:C:/Users/Mafish/Documents/GitHub/MAB_Driver/Libraries/XMCLib/inc\xmc_gpio.h ****  * @file xmc_gpio.h
   3:C:/Users/Mafish/Documents/GitHub/MAB_Driver/Libraries/XMCLib/inc\xmc_gpio.h ****  * @date 2015-06-20
   4:C:/Users/Mafish/Documents/GitHub/MAB_Driver/Libraries/XMCLib/inc\xmc_gpio.h ****  *
   5:C:/Users/Mafish/Documents/GitHub/MAB_Driver/Libraries/XMCLib/inc\xmc_gpio.h ****  * @cond
   6:C:/Users/Mafish/Documents/GitHub/MAB_Driver/Libraries/XMCLib/inc\xmc_gpio.h ****  **************************************************************************************************
   7:C:/Users/Mafish/Documents/GitHub/MAB_Driver/Libraries/XMCLib/inc\xmc_gpio.h ****  * XMClib v2.1.16 - XMC Peripheral Driver Library 
   8:C:/Users/Mafish/Documents/GitHub/MAB_Driver/Libraries/XMCLib/inc\xmc_gpio.h ****  *
   9:C:/Users/Mafish/Documents/GitHub/MAB_Driver/Libraries/XMCLib/inc\xmc_gpio.h ****  * Copyright (c) 2015-2017, Infineon Technologies AG
  10:C:/Users/Mafish/Documents/GitHub/MAB_Driver/Libraries/XMCLib/inc\xmc_gpio.h ****  * All rights reserved.                        
  11:C:/Users/Mafish/Documents/GitHub/MAB_Driver/Libraries/XMCLib/inc\xmc_gpio.h ****  *                                             
  12:C:/Users/Mafish/Documents/GitHub/MAB_Driver/Libraries/XMCLib/inc\xmc_gpio.h ****  * Redistribution and use in source and binary forms, with or without modification,are permitted pr
  13:C:/Users/Mafish/Documents/GitHub/MAB_Driver/Libraries/XMCLib/inc\xmc_gpio.h ****  * following conditions are met:   
  14:C:/Users/Mafish/Documents/GitHub/MAB_Driver/Libraries/XMCLib/inc\xmc_gpio.h ****  *                                                                              
  15:C:/Users/Mafish/Documents/GitHub/MAB_Driver/Libraries/XMCLib/inc\xmc_gpio.h ****  * Redistributions of source code must retain the above copyright notice, this list of conditions a
  16:C:/Users/Mafish/Documents/GitHub/MAB_Driver/Libraries/XMCLib/inc\xmc_gpio.h ****  * disclaimer.                        
  17:C:/Users/Mafish/Documents/GitHub/MAB_Driver/Libraries/XMCLib/inc\xmc_gpio.h ****  * 
  18:C:/Users/Mafish/Documents/GitHub/MAB_Driver/Libraries/XMCLib/inc\xmc_gpio.h ****  * Redistributions in binary form must reproduce the above copyright notice, this list of condition
  19:C:/Users/Mafish/Documents/GitHub/MAB_Driver/Libraries/XMCLib/inc\xmc_gpio.h ****  * disclaimer in the documentation and/or other materials provided with the distribution.          
  20:C:/Users/Mafish/Documents/GitHub/MAB_Driver/Libraries/XMCLib/inc\xmc_gpio.h ****  * 
  21:C:/Users/Mafish/Documents/GitHub/MAB_Driver/Libraries/XMCLib/inc\xmc_gpio.h ****  * Neither the name of the copyright holders nor the names of its contributors may be used to endor
  22:C:/Users/Mafish/Documents/GitHub/MAB_Driver/Libraries/XMCLib/inc\xmc_gpio.h ****  * products derived from this software without specific prior written permission.                  
  23:C:/Users/Mafish/Documents/GitHub/MAB_Driver/Libraries/XMCLib/inc\xmc_gpio.h ****  *                                                                              
  24:C:/Users/Mafish/Documents/GitHub/MAB_Driver/Libraries/XMCLib/inc\xmc_gpio.h ****  * THIS SOFTWARE IS PROVIDED BY THE COPYRIGHT HOLDERS AND CONTRIBUTORS "AS IS" AND ANY EXPRESS OR I
  25:C:/Users/Mafish/Documents/GitHub/MAB_Driver/Libraries/XMCLib/inc\xmc_gpio.h ****  * INCLUDING, BUT NOT LIMITED TO, THE IMPLIED WARRANTIES OF MERCHANTABILITY AND FITNESS FOR A PARTI
  26:C:/Users/Mafish/Documents/GitHub/MAB_Driver/Libraries/XMCLib/inc\xmc_gpio.h ****  * DISCLAIMED. IN NO EVENT SHALL THE COPYRIGHT HOLDER OR CONTRIBUTORS BE LIABLE  FOR ANY DIRECT, IN
  27:C:/Users/Mafish/Documents/GitHub/MAB_Driver/Libraries/XMCLib/inc\xmc_gpio.h ****  * SPECIAL, EXEMPLARY, OR CONSEQUENTIAL DAMAGES (INCLUDING, BUT NOT LIMITED TO, PROCUREMENT OF SUBS
  28:C:/Users/Mafish/Documents/GitHub/MAB_Driver/Libraries/XMCLib/inc\xmc_gpio.h ****  * SERVICES; LOSS OF USE, DATA, OR PROFITS; OR BUSINESS INTERRUPTION) HOWEVER CAUSED AND ON ANY THE
  29:C:/Users/Mafish/Documents/GitHub/MAB_Driver/Libraries/XMCLib/inc\xmc_gpio.h ****  * WHETHER IN CONTRACT, STRICT LIABILITY,OR TORT (INCLUDING NEGLIGENCE OR OTHERWISE) ARISING IN ANY
  30:C:/Users/Mafish/Documents/GitHub/MAB_Driver/Libraries/XMCLib/inc\xmc_gpio.h ****  * OF THIS SOFTWARE, EVEN IF ADVISED OF THE POSSIBILITY OF SUCH DAMAGE.                            
  31:C:/Users/Mafish/Documents/GitHub/MAB_Driver/Libraries/XMCLib/inc\xmc_gpio.h ****  *                                                                              
  32:C:/Users/Mafish/Documents/GitHub/MAB_Driver/Libraries/XMCLib/inc\xmc_gpio.h ****  * To improve the quality of the software, users are encouraged to share modifications, enhancement
  33:C:/Users/Mafish/Documents/GitHub/MAB_Driver/Libraries/XMCLib/inc\xmc_gpio.h ****  * Infineon Technologies AG dave@infineon.com).                                                    
  34:C:/Users/Mafish/Documents/GitHub/MAB_Driver/Libraries/XMCLib/inc\xmc_gpio.h ****  **************************************************************************************************
  35:C:/Users/Mafish/Documents/GitHub/MAB_Driver/Libraries/XMCLib/inc\xmc_gpio.h ****  *
  36:C:/Users/Mafish/Documents/GitHub/MAB_Driver/Libraries/XMCLib/inc\xmc_gpio.h ****  * Change History
  37:C:/Users/Mafish/Documents/GitHub/MAB_Driver/Libraries/XMCLib/inc\xmc_gpio.h ****  * --------------
  38:C:/Users/Mafish/Documents/GitHub/MAB_Driver/Libraries/XMCLib/inc\xmc_gpio.h ****  *
  39:C:/Users/Mafish/Documents/GitHub/MAB_Driver/Libraries/XMCLib/inc\xmc_gpio.h ****  * 2015-02-20:
  40:C:/Users/Mafish/Documents/GitHub/MAB_Driver/Libraries/XMCLib/inc\xmc_gpio.h ****  *     - Initial draft<br>
  41:C:/Users/Mafish/Documents/GitHub/MAB_Driver/Libraries/XMCLib/inc\xmc_gpio.h ****  *     - Documentation improved <br>
  42:C:/Users/Mafish/Documents/GitHub/MAB_Driver/Libraries/XMCLib/inc\xmc_gpio.h ****  *      
  43:C:/Users/Mafish/Documents/GitHub/MAB_Driver/Libraries/XMCLib/inc\xmc_gpio.h ****  * 2015-06-20:
  44:C:/Users/Mafish/Documents/GitHub/MAB_Driver/Libraries/XMCLib/inc\xmc_gpio.h ****  *     - Removed version macros and declaration of GetDriverVersion API
  45:C:/Users/Mafish/Documents/GitHub/MAB_Driver/Libraries/XMCLib/inc\xmc_gpio.h ****  *
  46:C:/Users/Mafish/Documents/GitHub/MAB_Driver/Libraries/XMCLib/inc\xmc_gpio.h ****  * @endcond
  47:C:/Users/Mafish/Documents/GitHub/MAB_Driver/Libraries/XMCLib/inc\xmc_gpio.h ****  *
  48:C:/Users/Mafish/Documents/GitHub/MAB_Driver/Libraries/XMCLib/inc\xmc_gpio.h ****  */
  49:C:/Users/Mafish/Documents/GitHub/MAB_Driver/Libraries/XMCLib/inc\xmc_gpio.h **** 
  50:C:/Users/Mafish/Documents/GitHub/MAB_Driver/Libraries/XMCLib/inc\xmc_gpio.h **** #ifndef XMC_GPIO_H
  51:C:/Users/Mafish/Documents/GitHub/MAB_Driver/Libraries/XMCLib/inc\xmc_gpio.h **** #define XMC_GPIO_H
  52:C:/Users/Mafish/Documents/GitHub/MAB_Driver/Libraries/XMCLib/inc\xmc_gpio.h **** 
  53:C:/Users/Mafish/Documents/GitHub/MAB_Driver/Libraries/XMCLib/inc\xmc_gpio.h **** /**************************************************************************************************
  54:C:/Users/Mafish/Documents/GitHub/MAB_Driver/Libraries/XMCLib/inc\xmc_gpio.h ****  * HEADER FILES
  55:C:/Users/Mafish/Documents/GitHub/MAB_Driver/Libraries/XMCLib/inc\xmc_gpio.h ****  **************************************************************************************************
  56:C:/Users/Mafish/Documents/GitHub/MAB_Driver/Libraries/XMCLib/inc\xmc_gpio.h **** 
  57:C:/Users/Mafish/Documents/GitHub/MAB_Driver/Libraries/XMCLib/inc\xmc_gpio.h **** #include "xmc_common.h"
  58:C:/Users/Mafish/Documents/GitHub/MAB_Driver/Libraries/XMCLib/inc\xmc_gpio.h **** 
  59:C:/Users/Mafish/Documents/GitHub/MAB_Driver/Libraries/XMCLib/inc\xmc_gpio.h **** /**
  60:C:/Users/Mafish/Documents/GitHub/MAB_Driver/Libraries/XMCLib/inc\xmc_gpio.h ****  * @addtogroup XMClib XMC Peripheral Library
  61:C:/Users/Mafish/Documents/GitHub/MAB_Driver/Libraries/XMCLib/inc\xmc_gpio.h ****  * @{
  62:C:/Users/Mafish/Documents/GitHub/MAB_Driver/Libraries/XMCLib/inc\xmc_gpio.h ****  */
  63:C:/Users/Mafish/Documents/GitHub/MAB_Driver/Libraries/XMCLib/inc\xmc_gpio.h **** 
  64:C:/Users/Mafish/Documents/GitHub/MAB_Driver/Libraries/XMCLib/inc\xmc_gpio.h **** /**
  65:C:/Users/Mafish/Documents/GitHub/MAB_Driver/Libraries/XMCLib/inc\xmc_gpio.h ****  * @addtogroup GPIO
  66:C:/Users/Mafish/Documents/GitHub/MAB_Driver/Libraries/XMCLib/inc\xmc_gpio.h ****  * @brief General Purpose Input Output (GPIO) driver for the XMC microcontroller family.
  67:C:/Users/Mafish/Documents/GitHub/MAB_Driver/Libraries/XMCLib/inc\xmc_gpio.h ****  *
  68:C:/Users/Mafish/Documents/GitHub/MAB_Driver/Libraries/XMCLib/inc\xmc_gpio.h ****  * GPIO driver provide a generic and very flexible software interface for all standard digital I/O 
  69:C:/Users/Mafish/Documents/GitHub/MAB_Driver/Libraries/XMCLib/inc\xmc_gpio.h ****  * Each port slice has individual interfaces for the operation as General Purpose I/O and it furthe
  70:C:/Users/Mafish/Documents/GitHub/MAB_Driver/Libraries/XMCLib/inc\xmc_gpio.h ****  * connectivity to the on-chip periphery and the control for the pad characteristics. 
  71:C:/Users/Mafish/Documents/GitHub/MAB_Driver/Libraries/XMCLib/inc\xmc_gpio.h ****  *
  72:C:/Users/Mafish/Documents/GitHub/MAB_Driver/Libraries/XMCLib/inc\xmc_gpio.h ****  * The driver is divided into Input and Output mode.
  73:C:/Users/Mafish/Documents/GitHub/MAB_Driver/Libraries/XMCLib/inc\xmc_gpio.h ****  *
  74:C:/Users/Mafish/Documents/GitHub/MAB_Driver/Libraries/XMCLib/inc\xmc_gpio.h ****  * Input mode features:
  75:C:/Users/Mafish/Documents/GitHub/MAB_Driver/Libraries/XMCLib/inc\xmc_gpio.h ****  * -# Configuration structure XMC_GPIO_CONFIG_t and initialization function XMC_GPIO_Init()
  76:C:/Users/Mafish/Documents/GitHub/MAB_Driver/Libraries/XMCLib/inc\xmc_gpio.h ****  * -# Allows the selection of weak pull-up or pull-down device. Configuration structure XMC_GPIO_MO
  77:C:/Users/Mafish/Documents/GitHub/MAB_Driver/Libraries/XMCLib/inc\xmc_gpio.h ****  * \if XMC1
  78:C:/Users/Mafish/Documents/GitHub/MAB_Driver/Libraries/XMCLib/inc\xmc_gpio.h ****  * -# Allows the selection of input hysteresis. XMC_GPIO_SetInputHysteresis()
  79:C:/Users/Mafish/Documents/GitHub/MAB_Driver/Libraries/XMCLib/inc\xmc_gpio.h ****  * \endif
  80:C:/Users/Mafish/Documents/GitHub/MAB_Driver/Libraries/XMCLib/inc\xmc_gpio.h ****  *
  81:C:/Users/Mafish/Documents/GitHub/MAB_Driver/Libraries/XMCLib/inc\xmc_gpio.h ****  * 
  82:C:/Users/Mafish/Documents/GitHub/MAB_Driver/Libraries/XMCLib/inc\xmc_gpio.h ****  * Output mode features:
  83:C:/Users/Mafish/Documents/GitHub/MAB_Driver/Libraries/XMCLib/inc\xmc_gpio.h ****  * -# Allows the selection of push pull/open drain and Alternate output. Configuration structure XM
  84:C:/Users/Mafish/Documents/GitHub/MAB_Driver/Libraries/XMCLib/inc\xmc_gpio.h ****  * \if XMC4
  85:C:/Users/Mafish/Documents/GitHub/MAB_Driver/Libraries/XMCLib/inc\xmc_gpio.h ****  * -# Allows the selection of pad driver strength. Configuration structure XMC_GPIO_OUTPUT_STRENGTH
  86:C:/Users/Mafish/Documents/GitHub/MAB_Driver/Libraries/XMCLib/inc\xmc_gpio.h ****  * \endif
  87:C:/Users/Mafish/Documents/GitHub/MAB_Driver/Libraries/XMCLib/inc\xmc_gpio.h ****  *
  88:C:/Users/Mafish/Documents/GitHub/MAB_Driver/Libraries/XMCLib/inc\xmc_gpio.h ****  * -# Allows the selection of initial output level. Configuration structure XMC_GPIO_OUTPUT_LEVEL_t
  89:C:/Users/Mafish/Documents/GitHub/MAB_Driver/Libraries/XMCLib/inc\xmc_gpio.h ****  *
  90:C:/Users/Mafish/Documents/GitHub/MAB_Driver/Libraries/XMCLib/inc\xmc_gpio.h ****  *@{
  91:C:/Users/Mafish/Documents/GitHub/MAB_Driver/Libraries/XMCLib/inc\xmc_gpio.h ****  */
  92:C:/Users/Mafish/Documents/GitHub/MAB_Driver/Libraries/XMCLib/inc\xmc_gpio.h ****  
  93:C:/Users/Mafish/Documents/GitHub/MAB_Driver/Libraries/XMCLib/inc\xmc_gpio.h **** /**************************************************************************************************
  94:C:/Users/Mafish/Documents/GitHub/MAB_Driver/Libraries/XMCLib/inc\xmc_gpio.h ****  * MACROS
  95:C:/Users/Mafish/Documents/GitHub/MAB_Driver/Libraries/XMCLib/inc\xmc_gpio.h ****  **************************************************************************************************
  96:C:/Users/Mafish/Documents/GitHub/MAB_Driver/Libraries/XMCLib/inc\xmc_gpio.h **** 
  97:C:/Users/Mafish/Documents/GitHub/MAB_Driver/Libraries/XMCLib/inc\xmc_gpio.h **** #define PORT_IOCR_PC_Pos PORT0_IOCR0_PC0_Pos
  98:C:/Users/Mafish/Documents/GitHub/MAB_Driver/Libraries/XMCLib/inc\xmc_gpio.h **** #define PORT_IOCR_PC_Msk PORT0_IOCR0_PC0_Msk
  99:C:/Users/Mafish/Documents/GitHub/MAB_Driver/Libraries/XMCLib/inc\xmc_gpio.h **** 
 100:C:/Users/Mafish/Documents/GitHub/MAB_Driver/Libraries/XMCLib/inc\xmc_gpio.h **** #define PORT_IOCR_PC_Size 				(8U)
 101:C:/Users/Mafish/Documents/GitHub/MAB_Driver/Libraries/XMCLib/inc\xmc_gpio.h **** 											
 102:C:/Users/Mafish/Documents/GitHub/MAB_Driver/Libraries/XMCLib/inc\xmc_gpio.h **** 
 103:C:/Users/Mafish/Documents/GitHub/MAB_Driver/Libraries/XMCLib/inc\xmc_gpio.h **** #define XMC_GPIO_CHECK_OUTPUT_LEVEL(level) ((level == XMC_GPIO_OUTPUT_LEVEL_LOW) || \
 104:C:/Users/Mafish/Documents/GitHub/MAB_Driver/Libraries/XMCLib/inc\xmc_gpio.h ****                                             (level == XMC_GPIO_OUTPUT_LEVEL_HIGH))
 105:C:/Users/Mafish/Documents/GitHub/MAB_Driver/Libraries/XMCLib/inc\xmc_gpio.h ****                                             
 106:C:/Users/Mafish/Documents/GitHub/MAB_Driver/Libraries/XMCLib/inc\xmc_gpio.h **** #define XMC_GPIO_CHECK_HWCTRL(hwctrl) ((hwctrl == XMC_GPIO_HWCTRL_DISABLED) || \
 107:C:/Users/Mafish/Documents/GitHub/MAB_Driver/Libraries/XMCLib/inc\xmc_gpio.h ****                                        (hwctrl == XMC_GPIO_HWCTRL_PERIPHERAL1) || \
 108:C:/Users/Mafish/Documents/GitHub/MAB_Driver/Libraries/XMCLib/inc\xmc_gpio.h ****                                        (hwctrl == XMC_GPIO_HWCTRL_PERIPHERAL2))                    
 109:C:/Users/Mafish/Documents/GitHub/MAB_Driver/Libraries/XMCLib/inc\xmc_gpio.h ****                                             
 110:C:/Users/Mafish/Documents/GitHub/MAB_Driver/Libraries/XMCLib/inc\xmc_gpio.h **** /**************************************************************************************************
 111:C:/Users/Mafish/Documents/GitHub/MAB_Driver/Libraries/XMCLib/inc\xmc_gpio.h ****  * ENUMS
 112:C:/Users/Mafish/Documents/GitHub/MAB_Driver/Libraries/XMCLib/inc\xmc_gpio.h ****  **************************************************************************************************
 113:C:/Users/Mafish/Documents/GitHub/MAB_Driver/Libraries/XMCLib/inc\xmc_gpio.h **** 
 114:C:/Users/Mafish/Documents/GitHub/MAB_Driver/Libraries/XMCLib/inc\xmc_gpio.h **** 
 115:C:/Users/Mafish/Documents/GitHub/MAB_Driver/Libraries/XMCLib/inc\xmc_gpio.h **** /**
 116:C:/Users/Mafish/Documents/GitHub/MAB_Driver/Libraries/XMCLib/inc\xmc_gpio.h ****  * Defines output level of a pin. Use type \a XMC_GPIO_OUTPUT_LEVEL_t for this enum.
 117:C:/Users/Mafish/Documents/GitHub/MAB_Driver/Libraries/XMCLib/inc\xmc_gpio.h ****  */
 118:C:/Users/Mafish/Documents/GitHub/MAB_Driver/Libraries/XMCLib/inc\xmc_gpio.h **** typedef enum XMC_GPIO_OUTPUT_LEVEL
 119:C:/Users/Mafish/Documents/GitHub/MAB_Driver/Libraries/XMCLib/inc\xmc_gpio.h **** {
 120:C:/Users/Mafish/Documents/GitHub/MAB_Driver/Libraries/XMCLib/inc\xmc_gpio.h ****   XMC_GPIO_OUTPUT_LEVEL_LOW  = 0x10000U, /**<  Reset bit */
 121:C:/Users/Mafish/Documents/GitHub/MAB_Driver/Libraries/XMCLib/inc\xmc_gpio.h ****   XMC_GPIO_OUTPUT_LEVEL_HIGH = 0x1U, 	/**< Set bit  */
 122:C:/Users/Mafish/Documents/GitHub/MAB_Driver/Libraries/XMCLib/inc\xmc_gpio.h **** } XMC_GPIO_OUTPUT_LEVEL_t;
 123:C:/Users/Mafish/Documents/GitHub/MAB_Driver/Libraries/XMCLib/inc\xmc_gpio.h **** 
 124:C:/Users/Mafish/Documents/GitHub/MAB_Driver/Libraries/XMCLib/inc\xmc_gpio.h **** /**
 125:C:/Users/Mafish/Documents/GitHub/MAB_Driver/Libraries/XMCLib/inc\xmc_gpio.h ****  * Defines direct hardware control characteristics of the pin . Use type \a XMC_GPIO_HWCTRL_t for t
 126:C:/Users/Mafish/Documents/GitHub/MAB_Driver/Libraries/XMCLib/inc\xmc_gpio.h ****  */
 127:C:/Users/Mafish/Documents/GitHub/MAB_Driver/Libraries/XMCLib/inc\xmc_gpio.h **** typedef enum XMC_GPIO_HWCTRL
 128:C:/Users/Mafish/Documents/GitHub/MAB_Driver/Libraries/XMCLib/inc\xmc_gpio.h **** {
 129:C:/Users/Mafish/Documents/GitHub/MAB_Driver/Libraries/XMCLib/inc\xmc_gpio.h ****   XMC_GPIO_HWCTRL_DISABLED     = 0x0U, /**<  Software control only */
 130:C:/Users/Mafish/Documents/GitHub/MAB_Driver/Libraries/XMCLib/inc\xmc_gpio.h ****   XMC_GPIO_HWCTRL_PERIPHERAL1  = 0x1U, /**<  HWI0/HWO0 control path can override the software confi
 131:C:/Users/Mafish/Documents/GitHub/MAB_Driver/Libraries/XMCLib/inc\xmc_gpio.h ****   XMC_GPIO_HWCTRL_PERIPHERAL2  = 0x2U  /**<  HWI1/HWO1 control path can override the software confi
 132:C:/Users/Mafish/Documents/GitHub/MAB_Driver/Libraries/XMCLib/inc\xmc_gpio.h **** } XMC_GPIO_HWCTRL_t;
 133:C:/Users/Mafish/Documents/GitHub/MAB_Driver/Libraries/XMCLib/inc\xmc_gpio.h **** 
 134:C:/Users/Mafish/Documents/GitHub/MAB_Driver/Libraries/XMCLib/inc\xmc_gpio.h **** /**************************************************************************************************
 135:C:/Users/Mafish/Documents/GitHub/MAB_Driver/Libraries/XMCLib/inc\xmc_gpio.h ****  * DEVICE FAMILY EXTENSIONS
 136:C:/Users/Mafish/Documents/GitHub/MAB_Driver/Libraries/XMCLib/inc\xmc_gpio.h ****  **************************************************************************************************
 137:C:/Users/Mafish/Documents/GitHub/MAB_Driver/Libraries/XMCLib/inc\xmc_gpio.h **** 
 138:C:/Users/Mafish/Documents/GitHub/MAB_Driver/Libraries/XMCLib/inc\xmc_gpio.h ****  #if UC_FAMILY == XMC1
 139:C:/Users/Mafish/Documents/GitHub/MAB_Driver/Libraries/XMCLib/inc\xmc_gpio.h **** #include "xmc1_gpio.h"
 140:C:/Users/Mafish/Documents/GitHub/MAB_Driver/Libraries/XMCLib/inc\xmc_gpio.h **** #elif UC_FAMILY == XMC4
 141:C:/Users/Mafish/Documents/GitHub/MAB_Driver/Libraries/XMCLib/inc\xmc_gpio.h **** #include "xmc4_gpio.h"
 142:C:/Users/Mafish/Documents/GitHub/MAB_Driver/Libraries/XMCLib/inc\xmc_gpio.h **** #else
 143:C:/Users/Mafish/Documents/GitHub/MAB_Driver/Libraries/XMCLib/inc\xmc_gpio.h **** #error "xmc_gpio.h: family device not supported"
 144:C:/Users/Mafish/Documents/GitHub/MAB_Driver/Libraries/XMCLib/inc\xmc_gpio.h **** #endif
 145:C:/Users/Mafish/Documents/GitHub/MAB_Driver/Libraries/XMCLib/inc\xmc_gpio.h **** 
 146:C:/Users/Mafish/Documents/GitHub/MAB_Driver/Libraries/XMCLib/inc\xmc_gpio.h **** /**************************************************************************************************
 147:C:/Users/Mafish/Documents/GitHub/MAB_Driver/Libraries/XMCLib/inc\xmc_gpio.h ****  * API PROTOTYPES
 148:C:/Users/Mafish/Documents/GitHub/MAB_Driver/Libraries/XMCLib/inc\xmc_gpio.h ****  **************************************************************************************************
 149:C:/Users/Mafish/Documents/GitHub/MAB_Driver/Libraries/XMCLib/inc\xmc_gpio.h **** 
 150:C:/Users/Mafish/Documents/GitHub/MAB_Driver/Libraries/XMCLib/inc\xmc_gpio.h **** #ifdef __cplusplus
 151:C:/Users/Mafish/Documents/GitHub/MAB_Driver/Libraries/XMCLib/inc\xmc_gpio.h **** extern "C" {
 152:C:/Users/Mafish/Documents/GitHub/MAB_Driver/Libraries/XMCLib/inc\xmc_gpio.h **** #endif
 153:C:/Users/Mafish/Documents/GitHub/MAB_Driver/Libraries/XMCLib/inc\xmc_gpio.h **** 
 154:C:/Users/Mafish/Documents/GitHub/MAB_Driver/Libraries/XMCLib/inc\xmc_gpio.h **** 
 155:C:/Users/Mafish/Documents/GitHub/MAB_Driver/Libraries/XMCLib/inc\xmc_gpio.h **** /**
 156:C:/Users/Mafish/Documents/GitHub/MAB_Driver/Libraries/XMCLib/inc\xmc_gpio.h ****  * @param  port	  Constant pointer pointing to GPIO port, to access port registers like Pn_OUT,Pn_O
 157:C:/Users/Mafish/Documents/GitHub/MAB_Driver/Libraries/XMCLib/inc\xmc_gpio.h ****  * @param  pin	  Port pin number.
 158:C:/Users/Mafish/Documents/GitHub/MAB_Driver/Libraries/XMCLib/inc\xmc_gpio.h ****  * @param  config GPIO configuration data structure. Refer data structure @ref XMC_GPIO_CONFIG_t fo
 159:C:/Users/Mafish/Documents/GitHub/MAB_Driver/Libraries/XMCLib/inc\xmc_gpio.h ****  *
 160:C:/Users/Mafish/Documents/GitHub/MAB_Driver/Libraries/XMCLib/inc\xmc_gpio.h ****  * @return None
 161:C:/Users/Mafish/Documents/GitHub/MAB_Driver/Libraries/XMCLib/inc\xmc_gpio.h ****  *
 162:C:/Users/Mafish/Documents/GitHub/MAB_Driver/Libraries/XMCLib/inc\xmc_gpio.h ****  * \par<b>Description:</b><br>
 163:C:/Users/Mafish/Documents/GitHub/MAB_Driver/Libraries/XMCLib/inc\xmc_gpio.h ****  * \if XMC1
 164:C:/Users/Mafish/Documents/GitHub/MAB_Driver/Libraries/XMCLib/inc\xmc_gpio.h ****  * Initializes input / output mode settings like, pull up / pull down devices,hysteresis, push pull
 165:C:/Users/Mafish/Documents/GitHub/MAB_Driver/Libraries/XMCLib/inc\xmc_gpio.h ****  * Also configures alternate function outputs and clears hardware port control for a selected \a po
 166:C:/Users/Mafish/Documents/GitHub/MAB_Driver/Libraries/XMCLib/inc\xmc_gpio.h ****  * \a config provides selected I/O settings. It configures hardware registers Pn_IOCR,Pn_OUT, Pn_OM
 167:C:/Users/Mafish/Documents/GitHub/MAB_Driver/Libraries/XMCLib/inc\xmc_gpio.h ****  * \endif
 168:C:/Users/Mafish/Documents/GitHub/MAB_Driver/Libraries/XMCLib/inc\xmc_gpio.h ****  * \if XMC4
 169:C:/Users/Mafish/Documents/GitHub/MAB_Driver/Libraries/XMCLib/inc\xmc_gpio.h ****  * Initializes input / output mode settings like, pull up / pull down devices,push pull /open drain
 170:C:/Users/Mafish/Documents/GitHub/MAB_Driver/Libraries/XMCLib/inc\xmc_gpio.h ****  * Also configures alternate function outputs and clears hardware port control for selected \a port
 171:C:/Users/Mafish/Documents/GitHub/MAB_Driver/Libraries/XMCLib/inc\xmc_gpio.h ****  * It configures hardware registers Pn_IOCR,Pn_OUT,Pn_OMR,Pn_PDISC and Pn_PDR.\n
 172:C:/Users/Mafish/Documents/GitHub/MAB_Driver/Libraries/XMCLib/inc\xmc_gpio.h ****  * \endif
 173:C:/Users/Mafish/Documents/GitHub/MAB_Driver/Libraries/XMCLib/inc\xmc_gpio.h ****  *
 174:C:/Users/Mafish/Documents/GitHub/MAB_Driver/Libraries/XMCLib/inc\xmc_gpio.h ****  * \par<b>Related APIs:</b><BR>
 175:C:/Users/Mafish/Documents/GitHub/MAB_Driver/Libraries/XMCLib/inc\xmc_gpio.h ****  *  None
 176:C:/Users/Mafish/Documents/GitHub/MAB_Driver/Libraries/XMCLib/inc\xmc_gpio.h ****  *
 177:C:/Users/Mafish/Documents/GitHub/MAB_Driver/Libraries/XMCLib/inc\xmc_gpio.h ****  * \par<b>Note:</b><br>
 178:C:/Users/Mafish/Documents/GitHub/MAB_Driver/Libraries/XMCLib/inc\xmc_gpio.h ****  * This API is called in definition of DAVE_init by code generation and therefore should not be exp
 179:C:/Users/Mafish/Documents/GitHub/MAB_Driver/Libraries/XMCLib/inc\xmc_gpio.h ****  * for the normal operation. Use other APIs only after DAVE_init is called successfully (returns DA
 180:C:/Users/Mafish/Documents/GitHub/MAB_Driver/Libraries/XMCLib/inc\xmc_gpio.h ****  *
 181:C:/Users/Mafish/Documents/GitHub/MAB_Driver/Libraries/XMCLib/inc\xmc_gpio.h ****  *
 182:C:/Users/Mafish/Documents/GitHub/MAB_Driver/Libraries/XMCLib/inc\xmc_gpio.h ****  */
 183:C:/Users/Mafish/Documents/GitHub/MAB_Driver/Libraries/XMCLib/inc\xmc_gpio.h **** 
 184:C:/Users/Mafish/Documents/GitHub/MAB_Driver/Libraries/XMCLib/inc\xmc_gpio.h ****  
 185:C:/Users/Mafish/Documents/GitHub/MAB_Driver/Libraries/XMCLib/inc\xmc_gpio.h **** void XMC_GPIO_Init(XMC_GPIO_PORT_t *const port, const uint8_t pin, const XMC_GPIO_CONFIG_t *const c
 186:C:/Users/Mafish/Documents/GitHub/MAB_Driver/Libraries/XMCLib/inc\xmc_gpio.h ****  
 187:C:/Users/Mafish/Documents/GitHub/MAB_Driver/Libraries/XMCLib/inc\xmc_gpio.h **** /**
 188:C:/Users/Mafish/Documents/GitHub/MAB_Driver/Libraries/XMCLib/inc\xmc_gpio.h ****  *
 189:C:/Users/Mafish/Documents/GitHub/MAB_Driver/Libraries/XMCLib/inc\xmc_gpio.h ****  * @param  port	Constant pointer pointing to GPIO port, to access hardware register Pn_IOCR.
 190:C:/Users/Mafish/Documents/GitHub/MAB_Driver/Libraries/XMCLib/inc\xmc_gpio.h ****  * @param  pin	Port pin number.
 191:C:/Users/Mafish/Documents/GitHub/MAB_Driver/Libraries/XMCLib/inc\xmc_gpio.h ****  * @param  mode input / output functionality selection. Refer @ref XMC_GPIO_MODE_t for valid values
 192:C:/Users/Mafish/Documents/GitHub/MAB_Driver/Libraries/XMCLib/inc\xmc_gpio.h ****  *
 193:C:/Users/Mafish/Documents/GitHub/MAB_Driver/Libraries/XMCLib/inc\xmc_gpio.h ****  * @return None
 194:C:/Users/Mafish/Documents/GitHub/MAB_Driver/Libraries/XMCLib/inc\xmc_gpio.h ****  *
 195:C:/Users/Mafish/Documents/GitHub/MAB_Driver/Libraries/XMCLib/inc\xmc_gpio.h ****  * \par<b>Description:</b><br>
 196:C:/Users/Mafish/Documents/GitHub/MAB_Driver/Libraries/XMCLib/inc\xmc_gpio.h ****  * Sets digital input and output driver functionality and characteristics of a GPIO port pin. It co
 197:C:/Users/Mafish/Documents/GitHub/MAB_Driver/Libraries/XMCLib/inc\xmc_gpio.h ****  * registers Pn_IOCR. \a mode is initially configured during initialization in XMC_GPIO_Init(). Cal
 198:C:/Users/Mafish/Documents/GitHub/MAB_Driver/Libraries/XMCLib/inc\xmc_gpio.h ****  * the port direction functionality as needed later in the program.
 199:C:/Users/Mafish/Documents/GitHub/MAB_Driver/Libraries/XMCLib/inc\xmc_gpio.h ****  *
 200:C:/Users/Mafish/Documents/GitHub/MAB_Driver/Libraries/XMCLib/inc\xmc_gpio.h ****  * \par<b>Related APIs:</b><BR>
 201:C:/Users/Mafish/Documents/GitHub/MAB_Driver/Libraries/XMCLib/inc\xmc_gpio.h ****  *  None
 202:C:/Users/Mafish/Documents/GitHub/MAB_Driver/Libraries/XMCLib/inc\xmc_gpio.h ****  *
 203:C:/Users/Mafish/Documents/GitHub/MAB_Driver/Libraries/XMCLib/inc\xmc_gpio.h ****  */
 204:C:/Users/Mafish/Documents/GitHub/MAB_Driver/Libraries/XMCLib/inc\xmc_gpio.h **** 
 205:C:/Users/Mafish/Documents/GitHub/MAB_Driver/Libraries/XMCLib/inc\xmc_gpio.h **** void XMC_GPIO_SetMode(XMC_GPIO_PORT_t *const port, const uint8_t pin, const XMC_GPIO_MODE_t mode);
 206:C:/Users/Mafish/Documents/GitHub/MAB_Driver/Libraries/XMCLib/inc\xmc_gpio.h **** 
 207:C:/Users/Mafish/Documents/GitHub/MAB_Driver/Libraries/XMCLib/inc\xmc_gpio.h **** 
 208:C:/Users/Mafish/Documents/GitHub/MAB_Driver/Libraries/XMCLib/inc\xmc_gpio.h **** /**
 209:C:/Users/Mafish/Documents/GitHub/MAB_Driver/Libraries/XMCLib/inc\xmc_gpio.h ****  *
 210:C:/Users/Mafish/Documents/GitHub/MAB_Driver/Libraries/XMCLib/inc\xmc_gpio.h ****  * @param  port	 Constant pointer pointing to GPIO port, to access hardware register Pn_OMR.
 211:C:/Users/Mafish/Documents/GitHub/MAB_Driver/Libraries/XMCLib/inc\xmc_gpio.h ****  * @param  pin	 Port pin number.
 212:C:/Users/Mafish/Documents/GitHub/MAB_Driver/Libraries/XMCLib/inc\xmc_gpio.h ****  * @param  level output level selection. Refer @ref XMC_GPIO_OUTPUT_LEVEL_t for valid values.
 213:C:/Users/Mafish/Documents/GitHub/MAB_Driver/Libraries/XMCLib/inc\xmc_gpio.h ****  *
 214:C:/Users/Mafish/Documents/GitHub/MAB_Driver/Libraries/XMCLib/inc\xmc_gpio.h ****  * @return None
 215:C:/Users/Mafish/Documents/GitHub/MAB_Driver/Libraries/XMCLib/inc\xmc_gpio.h ****  *
 216:C:/Users/Mafish/Documents/GitHub/MAB_Driver/Libraries/XMCLib/inc\xmc_gpio.h ****  * \par<b>Description:</b><br>
 217:C:/Users/Mafish/Documents/GitHub/MAB_Driver/Libraries/XMCLib/inc\xmc_gpio.h ****  * Set port pin output level to high or low.It configures hardware registers Pn_OMR.\a level is ini
 218:C:/Users/Mafish/Documents/GitHub/MAB_Driver/Libraries/XMCLib/inc\xmc_gpio.h ****  * configured during initialization in XMC_GPIO_Init(). Call this API to alter output level as need
 219:C:/Users/Mafish/Documents/GitHub/MAB_Driver/Libraries/XMCLib/inc\xmc_gpio.h ****  *
 220:C:/Users/Mafish/Documents/GitHub/MAB_Driver/Libraries/XMCLib/inc\xmc_gpio.h ****  * \par<b>Related APIs:</b><BR>
 221:C:/Users/Mafish/Documents/GitHub/MAB_Driver/Libraries/XMCLib/inc\xmc_gpio.h ****  *  XMC_GPIO_SetOutputHigh(), XMC_GPIO_SetOutputLow().
 222:C:/Users/Mafish/Documents/GitHub/MAB_Driver/Libraries/XMCLib/inc\xmc_gpio.h ****  *
 223:C:/Users/Mafish/Documents/GitHub/MAB_Driver/Libraries/XMCLib/inc\xmc_gpio.h ****  * \par<b>Note:</b><br>
 224:C:/Users/Mafish/Documents/GitHub/MAB_Driver/Libraries/XMCLib/inc\xmc_gpio.h ****  * Prior to this api, user has to configure port pin to output mode using XMC_GPIO_SetMode().
 225:C:/Users/Mafish/Documents/GitHub/MAB_Driver/Libraries/XMCLib/inc\xmc_gpio.h ****  *
 226:C:/Users/Mafish/Documents/GitHub/MAB_Driver/Libraries/XMCLib/inc\xmc_gpio.h ****  */
 227:C:/Users/Mafish/Documents/GitHub/MAB_Driver/Libraries/XMCLib/inc\xmc_gpio.h **** 
 228:C:/Users/Mafish/Documents/GitHub/MAB_Driver/Libraries/XMCLib/inc\xmc_gpio.h **** 
 229:C:/Users/Mafish/Documents/GitHub/MAB_Driver/Libraries/XMCLib/inc\xmc_gpio.h **** __STATIC_INLINE void XMC_GPIO_SetOutputLevel(XMC_GPIO_PORT_t *const port, const uint8_t pin, const 
 230:C:/Users/Mafish/Documents/GitHub/MAB_Driver/Libraries/XMCLib/inc\xmc_gpio.h **** {
 231:C:/Users/Mafish/Documents/GitHub/MAB_Driver/Libraries/XMCLib/inc\xmc_gpio.h ****   XMC_ASSERT("XMC_GPIO_SetOutputLevel: Invalid port", XMC_GPIO_CHECK_OUTPUT_PORT(port));
 232:C:/Users/Mafish/Documents/GitHub/MAB_Driver/Libraries/XMCLib/inc\xmc_gpio.h ****   XMC_ASSERT("XMC_GPIO_SetOutputLevel: Invalid output level", XMC_GPIO_CHECK_OUTPUT_LEVEL(level));
 233:C:/Users/Mafish/Documents/GitHub/MAB_Driver/Libraries/XMCLib/inc\xmc_gpio.h ****   
 234:C:/Users/Mafish/Documents/GitHub/MAB_Driver/Libraries/XMCLib/inc\xmc_gpio.h ****   port->OMR = (uint32_t)level << pin;
 235:C:/Users/Mafish/Documents/GitHub/MAB_Driver/Libraries/XMCLib/inc\xmc_gpio.h **** }
 236:C:/Users/Mafish/Documents/GitHub/MAB_Driver/Libraries/XMCLib/inc\xmc_gpio.h **** 
 237:C:/Users/Mafish/Documents/GitHub/MAB_Driver/Libraries/XMCLib/inc\xmc_gpio.h **** 
 238:C:/Users/Mafish/Documents/GitHub/MAB_Driver/Libraries/XMCLib/inc\xmc_gpio.h **** /**
 239:C:/Users/Mafish/Documents/GitHub/MAB_Driver/Libraries/XMCLib/inc\xmc_gpio.h ****  * @param  port constant pointer pointing to GPIO port, to access hardware register Pn_OMR.
 240:C:/Users/Mafish/Documents/GitHub/MAB_Driver/Libraries/XMCLib/inc\xmc_gpio.h ****  * @param  pin	Port pin number.
 241:C:/Users/Mafish/Documents/GitHub/MAB_Driver/Libraries/XMCLib/inc\xmc_gpio.h ****  *
 242:C:/Users/Mafish/Documents/GitHub/MAB_Driver/Libraries/XMCLib/inc\xmc_gpio.h ****  * @return None
 243:C:/Users/Mafish/Documents/GitHub/MAB_Driver/Libraries/XMCLib/inc\xmc_gpio.h ****  *
 244:C:/Users/Mafish/Documents/GitHub/MAB_Driver/Libraries/XMCLib/inc\xmc_gpio.h ****  * \par<b>Description:</b><br>
 245:C:/Users/Mafish/Documents/GitHub/MAB_Driver/Libraries/XMCLib/inc\xmc_gpio.h ****  *  Sets port pin output to high. It configures hardware registers Pn_OMR.
 246:C:/Users/Mafish/Documents/GitHub/MAB_Driver/Libraries/XMCLib/inc\xmc_gpio.h ****  *
 247:C:/Users/Mafish/Documents/GitHub/MAB_Driver/Libraries/XMCLib/inc\xmc_gpio.h ****  *  \par<b>Related APIs:</b><BR>
 248:C:/Users/Mafish/Documents/GitHub/MAB_Driver/Libraries/XMCLib/inc\xmc_gpio.h ****  *  XMC_GPIO_SetOutputLow()
 249:C:/Users/Mafish/Documents/GitHub/MAB_Driver/Libraries/XMCLib/inc\xmc_gpio.h ****  *
 250:C:/Users/Mafish/Documents/GitHub/MAB_Driver/Libraries/XMCLib/inc\xmc_gpio.h ****  * \par<b>Note:</b><br>
 251:C:/Users/Mafish/Documents/GitHub/MAB_Driver/Libraries/XMCLib/inc\xmc_gpio.h ****  * Prior to this api, user has to configure port pin to output mode using XMC_GPIO_SetMode().\n
 252:C:/Users/Mafish/Documents/GitHub/MAB_Driver/Libraries/XMCLib/inc\xmc_gpio.h ****  * Register Pn_OMR is virtual and does not contain any flip-flop. A read action delivers the value 
 253:C:/Users/Mafish/Documents/GitHub/MAB_Driver/Libraries/XMCLib/inc\xmc_gpio.h ****  *
 254:C:/Users/Mafish/Documents/GitHub/MAB_Driver/Libraries/XMCLib/inc\xmc_gpio.h ****  */
 255:C:/Users/Mafish/Documents/GitHub/MAB_Driver/Libraries/XMCLib/inc\xmc_gpio.h **** 
 256:C:/Users/Mafish/Documents/GitHub/MAB_Driver/Libraries/XMCLib/inc\xmc_gpio.h **** __STATIC_INLINE void XMC_GPIO_SetOutputHigh(XMC_GPIO_PORT_t *const port, const uint8_t pin)
 257:C:/Users/Mafish/Documents/GitHub/MAB_Driver/Libraries/XMCLib/inc\xmc_gpio.h **** {
  27              	 .loc 1 257 0
  28              	 .cfi_startproc
  29              	 
  30              	 
  31              	 
  32 0000 80B4     	 push {r7}
  33              	.LCFI0:
  34              	 .cfi_def_cfa_offset 4
  35              	 .cfi_offset 7,-4
  36 0002 83B0     	 sub sp,sp,#12
  37              	.LCFI1:
  38              	 .cfi_def_cfa_offset 16
  39 0004 00AF     	 add r7,sp,#0
  40              	.LCFI2:
  41              	 .cfi_def_cfa_register 7
  42 0006 7860     	 str r0,[r7,#4]
  43 0008 0B46     	 mov r3,r1
  44 000a FB70     	 strb r3,[r7,#3]
 258:C:/Users/Mafish/Documents/GitHub/MAB_Driver/Libraries/XMCLib/inc\xmc_gpio.h ****   XMC_ASSERT("XMC_GPIO_SetOutputHigh: Invalid port", XMC_GPIO_CHECK_OUTPUT_PORT(port));
 259:C:/Users/Mafish/Documents/GitHub/MAB_Driver/Libraries/XMCLib/inc\xmc_gpio.h **** 
 260:C:/Users/Mafish/Documents/GitHub/MAB_Driver/Libraries/XMCLib/inc\xmc_gpio.h ****   port->OMR = (uint32_t)0x1U << pin;
  45              	 .loc 1 260 0
  46 000c FB78     	 ldrb r3,[r7,#3]
  47 000e 0122     	 movs r2,#1
  48 0010 9A40     	 lsls r2,r2,r3
  49 0012 7B68     	 ldr r3,[r7,#4]
  50 0014 5A60     	 str r2,[r3,#4]
 261:C:/Users/Mafish/Documents/GitHub/MAB_Driver/Libraries/XMCLib/inc\xmc_gpio.h **** }
  51              	 .loc 1 261 0
  52 0016 0C37     	 adds r7,r7,#12
  53              	.LCFI3:
  54              	 .cfi_def_cfa_offset 4
  55 0018 BD46     	 mov sp,r7
  56              	.LCFI4:
  57              	 .cfi_def_cfa_register 13
  58              	 
  59 001a 5DF8047B 	 ldr r7,[sp],#4
  60              	.LCFI5:
  61              	 .cfi_restore 7
  62              	 .cfi_def_cfa_offset 0
  63 001e 7047     	 bx lr
  64              	 .cfi_endproc
  65              	.LFE164:
  67              	 .section .text.XMC_GPIO_SetOutputLow,"ax",%progbits
  68              	 .align 2
  69              	 .thumb
  70              	 .thumb_func
  72              	XMC_GPIO_SetOutputLow:
  73              	.LFB165:
 262:C:/Users/Mafish/Documents/GitHub/MAB_Driver/Libraries/XMCLib/inc\xmc_gpio.h **** 
 263:C:/Users/Mafish/Documents/GitHub/MAB_Driver/Libraries/XMCLib/inc\xmc_gpio.h **** /**
 264:C:/Users/Mafish/Documents/GitHub/MAB_Driver/Libraries/XMCLib/inc\xmc_gpio.h ****  *
 265:C:/Users/Mafish/Documents/GitHub/MAB_Driver/Libraries/XMCLib/inc\xmc_gpio.h ****  * @param  port	constant pointer pointing to GPIO port, to access hardware register Pn_OMR.
 266:C:/Users/Mafish/Documents/GitHub/MAB_Driver/Libraries/XMCLib/inc\xmc_gpio.h ****  * @param  pin	port pin number.
 267:C:/Users/Mafish/Documents/GitHub/MAB_Driver/Libraries/XMCLib/inc\xmc_gpio.h ****  *
 268:C:/Users/Mafish/Documents/GitHub/MAB_Driver/Libraries/XMCLib/inc\xmc_gpio.h ****  * @return  None
 269:C:/Users/Mafish/Documents/GitHub/MAB_Driver/Libraries/XMCLib/inc\xmc_gpio.h ****  *
 270:C:/Users/Mafish/Documents/GitHub/MAB_Driver/Libraries/XMCLib/inc\xmc_gpio.h ****  *\par<b>Description:</b><br>
 271:C:/Users/Mafish/Documents/GitHub/MAB_Driver/Libraries/XMCLib/inc\xmc_gpio.h ****  * Sets port pin output to low. It configures hardware registers Pn_OMR.\n
 272:C:/Users/Mafish/Documents/GitHub/MAB_Driver/Libraries/XMCLib/inc\xmc_gpio.h ****  *
 273:C:/Users/Mafish/Documents/GitHub/MAB_Driver/Libraries/XMCLib/inc\xmc_gpio.h ****  * \par<b>Related APIs:</b><BR>>
 274:C:/Users/Mafish/Documents/GitHub/MAB_Driver/Libraries/XMCLib/inc\xmc_gpio.h ****  * XMC_GPIO_SetOutputHigh()
 275:C:/Users/Mafish/Documents/GitHub/MAB_Driver/Libraries/XMCLib/inc\xmc_gpio.h ****  *
 276:C:/Users/Mafish/Documents/GitHub/MAB_Driver/Libraries/XMCLib/inc\xmc_gpio.h ****  *\par<b>Note:</b><br>
 277:C:/Users/Mafish/Documents/GitHub/MAB_Driver/Libraries/XMCLib/inc\xmc_gpio.h ****  * Prior to this api, user has to configure port pin to output mode using XMC_GPIO_SetMode().
 278:C:/Users/Mafish/Documents/GitHub/MAB_Driver/Libraries/XMCLib/inc\xmc_gpio.h ****  * Register Pn_OMR is virtual and does not contain any flip-flop. A read action delivers the value 
 279:C:/Users/Mafish/Documents/GitHub/MAB_Driver/Libraries/XMCLib/inc\xmc_gpio.h ****  *
 280:C:/Users/Mafish/Documents/GitHub/MAB_Driver/Libraries/XMCLib/inc\xmc_gpio.h ****  */
 281:C:/Users/Mafish/Documents/GitHub/MAB_Driver/Libraries/XMCLib/inc\xmc_gpio.h **** 
 282:C:/Users/Mafish/Documents/GitHub/MAB_Driver/Libraries/XMCLib/inc\xmc_gpio.h **** __STATIC_INLINE void XMC_GPIO_SetOutputLow(XMC_GPIO_PORT_t *const port, const uint8_t pin)
 283:C:/Users/Mafish/Documents/GitHub/MAB_Driver/Libraries/XMCLib/inc\xmc_gpio.h **** {
  74              	 .loc 1 283 0
  75              	 .cfi_startproc
  76              	 
  77              	 
  78              	 
  79 0000 80B4     	 push {r7}
  80              	.LCFI6:
  81              	 .cfi_def_cfa_offset 4
  82              	 .cfi_offset 7,-4
  83 0002 83B0     	 sub sp,sp,#12
  84              	.LCFI7:
  85              	 .cfi_def_cfa_offset 16
  86 0004 00AF     	 add r7,sp,#0
  87              	.LCFI8:
  88              	 .cfi_def_cfa_register 7
  89 0006 7860     	 str r0,[r7,#4]
  90 0008 0B46     	 mov r3,r1
  91 000a FB70     	 strb r3,[r7,#3]
 284:C:/Users/Mafish/Documents/GitHub/MAB_Driver/Libraries/XMCLib/inc\xmc_gpio.h ****   XMC_ASSERT("XMC_GPIO_SetOutputLow: Invalid port", XMC_GPIO_CHECK_OUTPUT_PORT(port));
 285:C:/Users/Mafish/Documents/GitHub/MAB_Driver/Libraries/XMCLib/inc\xmc_gpio.h **** 
 286:C:/Users/Mafish/Documents/GitHub/MAB_Driver/Libraries/XMCLib/inc\xmc_gpio.h ****   port->OMR = 0x10000U << pin;
  92              	 .loc 1 286 0
  93 000c FB78     	 ldrb r3,[r7,#3]
  94 000e 4FF48032 	 mov r2,#65536
  95 0012 9A40     	 lsls r2,r2,r3
  96 0014 7B68     	 ldr r3,[r7,#4]
  97 0016 5A60     	 str r2,[r3,#4]
 287:C:/Users/Mafish/Documents/GitHub/MAB_Driver/Libraries/XMCLib/inc\xmc_gpio.h **** }
  98              	 .loc 1 287 0
  99 0018 0C37     	 adds r7,r7,#12
 100              	.LCFI9:
 101              	 .cfi_def_cfa_offset 4
 102 001a BD46     	 mov sp,r7
 103              	.LCFI10:
 104              	 .cfi_def_cfa_register 13
 105              	 
 106 001c 5DF8047B 	 ldr r7,[sp],#4
 107              	.LCFI11:
 108              	 .cfi_restore 7
 109              	 .cfi_def_cfa_offset 0
 110 0020 7047     	 bx lr
 111              	 .cfi_endproc
 112              	.LFE165:
 114 0022 00BF     	 .section .text.XMC_GPIO_ToggleOutput,"ax",%progbits
 115              	 .align 2
 116              	 .thumb
 117              	 .thumb_func
 119              	XMC_GPIO_ToggleOutput:
 120              	.LFB166:
 288:C:/Users/Mafish/Documents/GitHub/MAB_Driver/Libraries/XMCLib/inc\xmc_gpio.h **** 
 289:C:/Users/Mafish/Documents/GitHub/MAB_Driver/Libraries/XMCLib/inc\xmc_gpio.h **** /**
 290:C:/Users/Mafish/Documents/GitHub/MAB_Driver/Libraries/XMCLib/inc\xmc_gpio.h ****  *
 291:C:/Users/Mafish/Documents/GitHub/MAB_Driver/Libraries/XMCLib/inc\xmc_gpio.h ****  * @param port constant pointer pointing to GPIO port, to access hardware register Pn_OMR.
 292:C:/Users/Mafish/Documents/GitHub/MAB_Driver/Libraries/XMCLib/inc\xmc_gpio.h ****  * @param pin  port pin number.
 293:C:/Users/Mafish/Documents/GitHub/MAB_Driver/Libraries/XMCLib/inc\xmc_gpio.h ****  *
 294:C:/Users/Mafish/Documents/GitHub/MAB_Driver/Libraries/XMCLib/inc\xmc_gpio.h ****  * @return None
 295:C:/Users/Mafish/Documents/GitHub/MAB_Driver/Libraries/XMCLib/inc\xmc_gpio.h ****  *
 296:C:/Users/Mafish/Documents/GitHub/MAB_Driver/Libraries/XMCLib/inc\xmc_gpio.h ****  * \par<b>Description:</b><br>
 297:C:/Users/Mafish/Documents/GitHub/MAB_Driver/Libraries/XMCLib/inc\xmc_gpio.h ****  * Configures port pin output to Toggle. It configures hardware registers Pn_OMR.
 298:C:/Users/Mafish/Documents/GitHub/MAB_Driver/Libraries/XMCLib/inc\xmc_gpio.h ****  *
 299:C:/Users/Mafish/Documents/GitHub/MAB_Driver/Libraries/XMCLib/inc\xmc_gpio.h ****  * \par<b>Related APIs:</b><BR>
 300:C:/Users/Mafish/Documents/GitHub/MAB_Driver/Libraries/XMCLib/inc\xmc_gpio.h ****  * XMC_GPIO_SetOutputHigh(), XMC_GPIO_SetOutputLow().
 301:C:/Users/Mafish/Documents/GitHub/MAB_Driver/Libraries/XMCLib/inc\xmc_gpio.h ****  *
 302:C:/Users/Mafish/Documents/GitHub/MAB_Driver/Libraries/XMCLib/inc\xmc_gpio.h ****  * \par<b>Note:</b><br>
 303:C:/Users/Mafish/Documents/GitHub/MAB_Driver/Libraries/XMCLib/inc\xmc_gpio.h ****  * Prior to this api, user has to configure port pin to output mode using XMC_GPIO_SetMode(). Regis
 304:C:/Users/Mafish/Documents/GitHub/MAB_Driver/Libraries/XMCLib/inc\xmc_gpio.h ****  * and does not contain any flip-flop. A read action delivers the value of 0.
 305:C:/Users/Mafish/Documents/GitHub/MAB_Driver/Libraries/XMCLib/inc\xmc_gpio.h ****  *
 306:C:/Users/Mafish/Documents/GitHub/MAB_Driver/Libraries/XMCLib/inc\xmc_gpio.h ****  */
 307:C:/Users/Mafish/Documents/GitHub/MAB_Driver/Libraries/XMCLib/inc\xmc_gpio.h **** 
 308:C:/Users/Mafish/Documents/GitHub/MAB_Driver/Libraries/XMCLib/inc\xmc_gpio.h **** __STATIC_INLINE void XMC_GPIO_ToggleOutput(XMC_GPIO_PORT_t *const port, const uint8_t pin)
 309:C:/Users/Mafish/Documents/GitHub/MAB_Driver/Libraries/XMCLib/inc\xmc_gpio.h **** {
 121              	 .loc 1 309 0
 122              	 .cfi_startproc
 123              	 
 124              	 
 125              	 
 126 0000 80B4     	 push {r7}
 127              	.LCFI12:
 128              	 .cfi_def_cfa_offset 4
 129              	 .cfi_offset 7,-4
 130 0002 83B0     	 sub sp,sp,#12
 131              	.LCFI13:
 132              	 .cfi_def_cfa_offset 16
 133 0004 00AF     	 add r7,sp,#0
 134              	.LCFI14:
 135              	 .cfi_def_cfa_register 7
 136 0006 7860     	 str r0,[r7,#4]
 137 0008 0B46     	 mov r3,r1
 138 000a FB70     	 strb r3,[r7,#3]
 310:C:/Users/Mafish/Documents/GitHub/MAB_Driver/Libraries/XMCLib/inc\xmc_gpio.h ****   XMC_ASSERT("XMC_GPIO_ToggleOutput: Invalid port", XMC_GPIO_CHECK_OUTPUT_PORT(port));
 311:C:/Users/Mafish/Documents/GitHub/MAB_Driver/Libraries/XMCLib/inc\xmc_gpio.h **** 
 312:C:/Users/Mafish/Documents/GitHub/MAB_Driver/Libraries/XMCLib/inc\xmc_gpio.h ****   port->OMR = 0x10001U << pin;
 139              	 .loc 1 312 0
 140 000c FB78     	 ldrb r3,[r7,#3]
 141 000e 4FF00112 	 mov r2,#65537
 142 0012 9A40     	 lsls r2,r2,r3
 143 0014 7B68     	 ldr r3,[r7,#4]
 144 0016 5A60     	 str r2,[r3,#4]
 313:C:/Users/Mafish/Documents/GitHub/MAB_Driver/Libraries/XMCLib/inc\xmc_gpio.h **** }
 145              	 .loc 1 313 0
 146 0018 0C37     	 adds r7,r7,#12
 147              	.LCFI15:
 148              	 .cfi_def_cfa_offset 4
 149 001a BD46     	 mov sp,r7
 150              	.LCFI16:
 151              	 .cfi_def_cfa_register 13
 152              	 
 153 001c 5DF8047B 	 ldr r7,[sp],#4
 154              	.LCFI17:
 155              	 .cfi_restore 7
 156              	 .cfi_def_cfa_offset 0
 157 0020 7047     	 bx lr
 158              	 .cfi_endproc
 159              	.LFE166:
 161 0022 00BF     	 .section .text.XMC_USIC_CH_ConfigureShiftClockOutput,"ax",%progbits
 162              	 .align 2
 163              	 .thumb
 164              	 .thumb_func
 166              	XMC_USIC_CH_ConfigureShiftClockOutput:
 167              	.LFB231:
 168              	 .file 2 "C:/Users/Mafish/Documents/GitHub/MAB_Driver/Libraries/XMCLib/inc/xmc_usic.h"
   1:C:/Users/Mafish/Documents/GitHub/MAB_Driver/Libraries/XMCLib/inc\xmc_usic.h **** /**
   2:C:/Users/Mafish/Documents/GitHub/MAB_Driver/Libraries/XMCLib/inc\xmc_usic.h ****  * @file xmc_usic.h
   3:C:/Users/Mafish/Documents/GitHub/MAB_Driver/Libraries/XMCLib/inc\xmc_usic.h ****  * @date 2017-02-10
   4:C:/Users/Mafish/Documents/GitHub/MAB_Driver/Libraries/XMCLib/inc\xmc_usic.h ****  *
   5:C:/Users/Mafish/Documents/GitHub/MAB_Driver/Libraries/XMCLib/inc\xmc_usic.h ****  * @cond
   6:C:/Users/Mafish/Documents/GitHub/MAB_Driver/Libraries/XMCLib/inc\xmc_usic.h ****  **************************************************************************************************
   7:C:/Users/Mafish/Documents/GitHub/MAB_Driver/Libraries/XMCLib/inc\xmc_usic.h ****  * XMClib v2.1.16 - XMC Peripheral Driver Library 
   8:C:/Users/Mafish/Documents/GitHub/MAB_Driver/Libraries/XMCLib/inc\xmc_usic.h ****  *
   9:C:/Users/Mafish/Documents/GitHub/MAB_Driver/Libraries/XMCLib/inc\xmc_usic.h ****  * Copyright (c) 2015-2017, Infineon Technologies AG
  10:C:/Users/Mafish/Documents/GitHub/MAB_Driver/Libraries/XMCLib/inc\xmc_usic.h ****  * All rights reserved.                        
  11:C:/Users/Mafish/Documents/GitHub/MAB_Driver/Libraries/XMCLib/inc\xmc_usic.h ****  *                                             
  12:C:/Users/Mafish/Documents/GitHub/MAB_Driver/Libraries/XMCLib/inc\xmc_usic.h ****  * Redistribution and use in source and binary forms, with or without modification,are permitted pr
  13:C:/Users/Mafish/Documents/GitHub/MAB_Driver/Libraries/XMCLib/inc\xmc_usic.h ****  * following conditions are met:   
  14:C:/Users/Mafish/Documents/GitHub/MAB_Driver/Libraries/XMCLib/inc\xmc_usic.h ****  *                                                                              
  15:C:/Users/Mafish/Documents/GitHub/MAB_Driver/Libraries/XMCLib/inc\xmc_usic.h ****  * Redistributions of source code must retain the above copyright notice, this list of conditions a
  16:C:/Users/Mafish/Documents/GitHub/MAB_Driver/Libraries/XMCLib/inc\xmc_usic.h ****  * disclaimer.                        
  17:C:/Users/Mafish/Documents/GitHub/MAB_Driver/Libraries/XMCLib/inc\xmc_usic.h ****  * 
  18:C:/Users/Mafish/Documents/GitHub/MAB_Driver/Libraries/XMCLib/inc\xmc_usic.h ****  * Redistributions in binary form must reproduce the above copyright notice, this list of condition
  19:C:/Users/Mafish/Documents/GitHub/MAB_Driver/Libraries/XMCLib/inc\xmc_usic.h ****  * disclaimer in the documentation and/or other materials provided with the distribution.          
  20:C:/Users/Mafish/Documents/GitHub/MAB_Driver/Libraries/XMCLib/inc\xmc_usic.h ****  * 
  21:C:/Users/Mafish/Documents/GitHub/MAB_Driver/Libraries/XMCLib/inc\xmc_usic.h ****  * Neither the name of the copyright holders nor the names of its contributors may be used to endor
  22:C:/Users/Mafish/Documents/GitHub/MAB_Driver/Libraries/XMCLib/inc\xmc_usic.h ****  * products derived from this software without specific prior written permission.                  
  23:C:/Users/Mafish/Documents/GitHub/MAB_Driver/Libraries/XMCLib/inc\xmc_usic.h ****  *                                                                              
  24:C:/Users/Mafish/Documents/GitHub/MAB_Driver/Libraries/XMCLib/inc\xmc_usic.h ****  * THIS SOFTWARE IS PROVIDED BY THE COPYRIGHT HOLDERS AND CONTRIBUTORS "AS IS" AND ANY EXPRESS OR I
  25:C:/Users/Mafish/Documents/GitHub/MAB_Driver/Libraries/XMCLib/inc\xmc_usic.h ****  * INCLUDING, BUT NOT LIMITED TO, THE IMPLIED WARRANTIES OF MERCHANTABILITY AND FITNESS FOR A PARTI
  26:C:/Users/Mafish/Documents/GitHub/MAB_Driver/Libraries/XMCLib/inc\xmc_usic.h ****  * DISCLAIMED. IN NO EVENT SHALL THE COPYRIGHT HOLDER OR CONTRIBUTORS BE LIABLE  FOR ANY DIRECT, IN
  27:C:/Users/Mafish/Documents/GitHub/MAB_Driver/Libraries/XMCLib/inc\xmc_usic.h ****  * SPECIAL, EXEMPLARY, OR CONSEQUENTIAL DAMAGES (INCLUDING, BUT NOT LIMITED TO, PROCUREMENT OF SUBS
  28:C:/Users/Mafish/Documents/GitHub/MAB_Driver/Libraries/XMCLib/inc\xmc_usic.h ****  * SERVICES; LOSS OF USE, DATA, OR PROFITS; OR BUSINESS INTERRUPTION) HOWEVER CAUSED AND ON ANY THE
  29:C:/Users/Mafish/Documents/GitHub/MAB_Driver/Libraries/XMCLib/inc\xmc_usic.h ****  * WHETHER IN CONTRACT, STRICT LIABILITY,OR TORT (INCLUDING NEGLIGENCE OR OTHERWISE) ARISING IN ANY
  30:C:/Users/Mafish/Documents/GitHub/MAB_Driver/Libraries/XMCLib/inc\xmc_usic.h ****  * OF THIS SOFTWARE, EVEN IF ADVISED OF THE POSSIBILITY OF SUCH DAMAGE.                            
  31:C:/Users/Mafish/Documents/GitHub/MAB_Driver/Libraries/XMCLib/inc\xmc_usic.h ****  *                                                                              
  32:C:/Users/Mafish/Documents/GitHub/MAB_Driver/Libraries/XMCLib/inc\xmc_usic.h ****  * To improve the quality of the software, users are encouraged to share modifications, enhancement
  33:C:/Users/Mafish/Documents/GitHub/MAB_Driver/Libraries/XMCLib/inc\xmc_usic.h ****  * Infineon Technologies AG dave@infineon.com).                                                    
  34:C:/Users/Mafish/Documents/GitHub/MAB_Driver/Libraries/XMCLib/inc\xmc_usic.h ****  **************************************************************************************************
  35:C:/Users/Mafish/Documents/GitHub/MAB_Driver/Libraries/XMCLib/inc\xmc_usic.h ****  *
  36:C:/Users/Mafish/Documents/GitHub/MAB_Driver/Libraries/XMCLib/inc\xmc_usic.h ****  * Change History
  37:C:/Users/Mafish/Documents/GitHub/MAB_Driver/Libraries/XMCLib/inc\xmc_usic.h ****  * --------------
  38:C:/Users/Mafish/Documents/GitHub/MAB_Driver/Libraries/XMCLib/inc\xmc_usic.h ****  *
  39:C:/Users/Mafish/Documents/GitHub/MAB_Driver/Libraries/XMCLib/inc\xmc_usic.h ****  * 2015-02-20:
  40:C:/Users/Mafish/Documents/GitHub/MAB_Driver/Libraries/XMCLib/inc\xmc_usic.h ****  *     - Initial draft<br>
  41:C:/Users/Mafish/Documents/GitHub/MAB_Driver/Libraries/XMCLib/inc\xmc_usic.h ****  *     - Documentation improved <br>
  42:C:/Users/Mafish/Documents/GitHub/MAB_Driver/Libraries/XMCLib/inc\xmc_usic.h ****  *
  43:C:/Users/Mafish/Documents/GitHub/MAB_Driver/Libraries/XMCLib/inc\xmc_usic.h ****  * 2015-05-08:
  44:C:/Users/Mafish/Documents/GitHub/MAB_Driver/Libraries/XMCLib/inc\xmc_usic.h ****  *     - Added XMC_USIC_CH_SetInputTriggerCombinationMode() and XMC_USIC_CH_SetTransmitBufferStatus
  45:C:/Users/Mafish/Documents/GitHub/MAB_Driver/Libraries/XMCLib/inc\xmc_usic.h ****  *      
  46:C:/Users/Mafish/Documents/GitHub/MAB_Driver/Libraries/XMCLib/inc\xmc_usic.h ****  * 2015-06-20:
  47:C:/Users/Mafish/Documents/GitHub/MAB_Driver/Libraries/XMCLib/inc\xmc_usic.h ****  *     - Removed version macros and declaration of GetDriverVersion API
  48:C:/Users/Mafish/Documents/GitHub/MAB_Driver/Libraries/XMCLib/inc\xmc_usic.h ****  * 
  49:C:/Users/Mafish/Documents/GitHub/MAB_Driver/Libraries/XMCLib/inc\xmc_usic.h ****  * 2015-08-17:
  50:C:/Users/Mafish/Documents/GitHub/MAB_Driver/Libraries/XMCLib/inc\xmc_usic.h ****  *     - Bug fixed in XMC_USIC_CH_SetTransmitBufferStatus API. OR operator removed.
  51:C:/Users/Mafish/Documents/GitHub/MAB_Driver/Libraries/XMCLib/inc\xmc_usic.h ****  *
  52:C:/Users/Mafish/Documents/GitHub/MAB_Driver/Libraries/XMCLib/inc\xmc_usic.h ****  * 2015-08-24:
  53:C:/Users/Mafish/Documents/GitHub/MAB_Driver/Libraries/XMCLib/inc\xmc_usic.h ****  *     - Added APIs for enabling/disabling delay compensation XMC_USIC_CH_DisableDelayCompensation(
  54:C:/Users/Mafish/Documents/GitHub/MAB_Driver/Libraries/XMCLib/inc\xmc_usic.h ****  *       XMC_USIC_CH_DisableDelayCompensation()
  55:C:/Users/Mafish/Documents/GitHub/MAB_Driver/Libraries/XMCLib/inc\xmc_usic.h ****  *
  56:C:/Users/Mafish/Documents/GitHub/MAB_Driver/Libraries/XMCLib/inc\xmc_usic.h ****  * 2015-08-25:
  57:C:/Users/Mafish/Documents/GitHub/MAB_Driver/Libraries/XMCLib/inc\xmc_usic.h ****  *     - Added APIs for defining if the data shift unit input is derived
  58:C:/Users/Mafish/Documents/GitHub/MAB_Driver/Libraries/XMCLib/inc\xmc_usic.h ****  *       from the input data path DXn or from the selected protocol pre-processors: XMC_USIC_CH_Con
  59:C:/Users/Mafish/Documents/GitHub/MAB_Driver/Libraries/XMCLib/inc\xmc_usic.h ****  *       and XMC_USIC_CH_ConnectInputDataShiftToDataInput()
  60:C:/Users/Mafish/Documents/GitHub/MAB_Driver/Libraries/XMCLib/inc\xmc_usic.h ****  *
  61:C:/Users/Mafish/Documents/GitHub/MAB_Driver/Libraries/XMCLib/inc\xmc_usic.h ****  * 2015-08-27:
  62:C:/Users/Mafish/Documents/GitHub/MAB_Driver/Libraries/XMCLib/inc\xmc_usic.h ****  *     - Fixed bug in XMC_USIC_CH_BRG_CLOCK_SOURCE_DX1T value.
  63:C:/Users/Mafish/Documents/GitHub/MAB_Driver/Libraries/XMCLib/inc\xmc_usic.h ****  *     - Added APIs for direct TBUF access: XMC_USIC_CH_WriteToTBUF() and XMC_USIC_CH_WriteToTBUFTC
  64:C:/Users/Mafish/Documents/GitHub/MAB_Driver/Libraries/XMCLib/inc\xmc_usic.h ****  *     - Added APIs for external input for BRG configuration:XMC_USIC_CH_ConfigExternalInputSignalT
  65:C:/Users/Mafish/Documents/GitHub/MAB_Driver/Libraries/XMCLib/inc\xmc_usic.h ****  *
  66:C:/Users/Mafish/Documents/GitHub/MAB_Driver/Libraries/XMCLib/inc\xmc_usic.h ****  * 2015-08-28:
  67:C:/Users/Mafish/Documents/GitHub/MAB_Driver/Libraries/XMCLib/inc\xmc_usic.h ****  *     - Added API for enabling the transfer trigger unit to set bit TCSR.TE if the trigger signal 
  68:C:/Users/Mafish/Documents/GitHub/MAB_Driver/Libraries/XMCLib/inc\xmc_usic.h ****  *       Clear to Send (CTS) signal: XMC_USIC_CH_EnableTBUFDataValidTrigger() and XMC_USIC_CH_Disab
  69:C:/Users/Mafish/Documents/GitHub/MAB_Driver/Libraries/XMCLib/inc\xmc_usic.h ****  *
  70:C:/Users/Mafish/Documents/GitHub/MAB_Driver/Libraries/XMCLib/inc\xmc_usic.h ****  * 2016-03-09:
  71:C:/Users/Mafish/Documents/GitHub/MAB_Driver/Libraries/XMCLib/inc\xmc_usic.h ****  *     - Optimization of write only registers
  72:C:/Users/Mafish/Documents/GitHub/MAB_Driver/Libraries/XMCLib/inc\xmc_usic.h ****  *
  73:C:/Users/Mafish/Documents/GitHub/MAB_Driver/Libraries/XMCLib/inc\xmc_usic.h ****  * 2016-04-10:
  74:C:/Users/Mafish/Documents/GitHub/MAB_Driver/Libraries/XMCLib/inc\xmc_usic.h ****  *     - Added an API to put the data into FIFO when hardware port control is enabled: XMC_USIC_CH_
  75:C:/Users/Mafish/Documents/GitHub/MAB_Driver/Libraries/XMCLib/inc\xmc_usic.h ****  *
  76:C:/Users/Mafish/Documents/GitHub/MAB_Driver/Libraries/XMCLib/inc\xmc_usic.h ****  * 2017-02-10:
  77:C:/Users/Mafish/Documents/GitHub/MAB_Driver/Libraries/XMCLib/inc\xmc_usic.h ****  *     - Added XMC_USIC_CH_SetShiftDirection() to allow selection of shift direction of the data wo
  78:C:/Users/Mafish/Documents/GitHub/MAB_Driver/Libraries/XMCLib/inc\xmc_usic.h ****  *     - Added XMC_USIC_CH_GetCaptureTimerValue() and XMC_USIC_CH_SetFractionalDivider()
  79:C:/Users/Mafish/Documents/GitHub/MAB_Driver/Libraries/XMCLib/inc\xmc_usic.h ****  *
  80:C:/Users/Mafish/Documents/GitHub/MAB_Driver/Libraries/XMCLib/inc\xmc_usic.h ****  * @endcond
  81:C:/Users/Mafish/Documents/GitHub/MAB_Driver/Libraries/XMCLib/inc\xmc_usic.h ****  *
  82:C:/Users/Mafish/Documents/GitHub/MAB_Driver/Libraries/XMCLib/inc\xmc_usic.h ****  */
  83:C:/Users/Mafish/Documents/GitHub/MAB_Driver/Libraries/XMCLib/inc\xmc_usic.h **** 
  84:C:/Users/Mafish/Documents/GitHub/MAB_Driver/Libraries/XMCLib/inc\xmc_usic.h **** #ifndef XMC_USIC_H
  85:C:/Users/Mafish/Documents/GitHub/MAB_Driver/Libraries/XMCLib/inc\xmc_usic.h **** #define XMC_USIC_H
  86:C:/Users/Mafish/Documents/GitHub/MAB_Driver/Libraries/XMCLib/inc\xmc_usic.h **** /*******************************************************************************
  87:C:/Users/Mafish/Documents/GitHub/MAB_Driver/Libraries/XMCLib/inc\xmc_usic.h ****  * HEADER FILES
  88:C:/Users/Mafish/Documents/GitHub/MAB_Driver/Libraries/XMCLib/inc\xmc_usic.h ****  *******************************************************************************/
  89:C:/Users/Mafish/Documents/GitHub/MAB_Driver/Libraries/XMCLib/inc\xmc_usic.h **** 
  90:C:/Users/Mafish/Documents/GitHub/MAB_Driver/Libraries/XMCLib/inc\xmc_usic.h **** #include "xmc_common.h"
  91:C:/Users/Mafish/Documents/GitHub/MAB_Driver/Libraries/XMCLib/inc\xmc_usic.h **** 
  92:C:/Users/Mafish/Documents/GitHub/MAB_Driver/Libraries/XMCLib/inc\xmc_usic.h **** /**
  93:C:/Users/Mafish/Documents/GitHub/MAB_Driver/Libraries/XMCLib/inc\xmc_usic.h ****  * @addtogroup XMClib XMC Peripheral Library
  94:C:/Users/Mafish/Documents/GitHub/MAB_Driver/Libraries/XMCLib/inc\xmc_usic.h ****  * @{
  95:C:/Users/Mafish/Documents/GitHub/MAB_Driver/Libraries/XMCLib/inc\xmc_usic.h ****  */
  96:C:/Users/Mafish/Documents/GitHub/MAB_Driver/Libraries/XMCLib/inc\xmc_usic.h **** 
  97:C:/Users/Mafish/Documents/GitHub/MAB_Driver/Libraries/XMCLib/inc\xmc_usic.h **** /**
  98:C:/Users/Mafish/Documents/GitHub/MAB_Driver/Libraries/XMCLib/inc\xmc_usic.h ****  * @addtogroup USIC
  99:C:/Users/Mafish/Documents/GitHub/MAB_Driver/Libraries/XMCLib/inc\xmc_usic.h ****  * @brief Universal Serial Interface Channel(USIC) driver for serial communication.
 100:C:/Users/Mafish/Documents/GitHub/MAB_Driver/Libraries/XMCLib/inc\xmc_usic.h ****  *
 101:C:/Users/Mafish/Documents/GitHub/MAB_Driver/Libraries/XMCLib/inc\xmc_usic.h ****  * The Universal Serial Interface Channel(USIC) module is a flexible interface module
 102:C:/Users/Mafish/Documents/GitHub/MAB_Driver/Libraries/XMCLib/inc\xmc_usic.h ****  * covering several serial communication protocols. A USIC module contains two
 103:C:/Users/Mafish/Documents/GitHub/MAB_Driver/Libraries/XMCLib/inc\xmc_usic.h ****  * independent communication channels named USICx_CH0 and USICx_CH1, with x
 104:C:/Users/Mafish/Documents/GitHub/MAB_Driver/Libraries/XMCLib/inc\xmc_usic.h ****  * being the number of the USIC module. The user can program, during run-time, which protocol will 
 105:C:/Users/Mafish/Documents/GitHub/MAB_Driver/Libraries/XMCLib/inc\xmc_usic.h ****  * by each communication channel and which pins are used.
 106:C:/Users/Mafish/Documents/GitHub/MAB_Driver/Libraries/XMCLib/inc\xmc_usic.h ****  * The driver provides APIs, configuration structures and enumerations to configure common features
 107:C:/Users/Mafish/Documents/GitHub/MAB_Driver/Libraries/XMCLib/inc\xmc_usic.h ****  * communication protocols.
 108:C:/Users/Mafish/Documents/GitHub/MAB_Driver/Libraries/XMCLib/inc\xmc_usic.h ****  * 
 109:C:/Users/Mafish/Documents/GitHub/MAB_Driver/Libraries/XMCLib/inc\xmc_usic.h ****  * USIC driver features:
 110:C:/Users/Mafish/Documents/GitHub/MAB_Driver/Libraries/XMCLib/inc\xmc_usic.h ****  * -# Allows configuration of FIFO for transmit and receive functions.
 111:C:/Users/Mafish/Documents/GitHub/MAB_Driver/Libraries/XMCLib/inc\xmc_usic.h ****  * -# Provides a structure type XMC_USIC_CH_t to represent the USIC channel registers in a programm
 112:C:/Users/Mafish/Documents/GitHub/MAB_Driver/Libraries/XMCLib/inc\xmc_usic.h ****  friendly format.
 113:C:/Users/Mafish/Documents/GitHub/MAB_Driver/Libraries/XMCLib/inc\xmc_usic.h ****  * -# Allows configuration of automatic update for frame length, word length, slave select or slave
 114:C:/Users/Mafish/Documents/GitHub/MAB_Driver/Libraries/XMCLib/inc\xmc_usic.h ****  * -# Allows transmission of data to FIFO using XMC_USIC_CH_TXFIFO_PutData() and XMC_USIC_CH_TXFIFO
 115:C:/Users/Mafish/Documents/GitHub/MAB_Driver/Libraries/XMCLib/inc\xmc_usic.h ****  * -# Allows reading of received data in FIFO using XMC_USIC_CH_RXFIFO_GetData()
 116:C:/Users/Mafish/Documents/GitHub/MAB_Driver/Libraries/XMCLib/inc\xmc_usic.h ****  * -# Allows configuration of baudrate using XMC_USIC_CH_SetBaudrate()
 117:C:/Users/Mafish/Documents/GitHub/MAB_Driver/Libraries/XMCLib/inc\xmc_usic.h ****  * -# Provides API to trigger interrupts using XMC_USIC_CH_TriggerServiceRequest()
 118:C:/Users/Mafish/Documents/GitHub/MAB_Driver/Libraries/XMCLib/inc\xmc_usic.h ****  * @{
 119:C:/Users/Mafish/Documents/GitHub/MAB_Driver/Libraries/XMCLib/inc\xmc_usic.h ****  */
 120:C:/Users/Mafish/Documents/GitHub/MAB_Driver/Libraries/XMCLib/inc\xmc_usic.h **** 
 121:C:/Users/Mafish/Documents/GitHub/MAB_Driver/Libraries/XMCLib/inc\xmc_usic.h **** /*******************************************************************************
 122:C:/Users/Mafish/Documents/GitHub/MAB_Driver/Libraries/XMCLib/inc\xmc_usic.h ****  * MACROS
 123:C:/Users/Mafish/Documents/GitHub/MAB_Driver/Libraries/XMCLib/inc\xmc_usic.h ****  *******************************************************************************/
 124:C:/Users/Mafish/Documents/GitHub/MAB_Driver/Libraries/XMCLib/inc\xmc_usic.h **** 
 125:C:/Users/Mafish/Documents/GitHub/MAB_Driver/Libraries/XMCLib/inc\xmc_usic.h **** #define XMC_USIC0 ((XMC_USIC_t *)USIC0_BASE)			/**< USIC0 module base address */
 126:C:/Users/Mafish/Documents/GitHub/MAB_Driver/Libraries/XMCLib/inc\xmc_usic.h **** #define XMC_USIC0_CH0 ((XMC_USIC_CH_t *)USIC0_CH0_BASE)	/**< USIC0 channel 0 base address */
 127:C:/Users/Mafish/Documents/GitHub/MAB_Driver/Libraries/XMCLib/inc\xmc_usic.h **** #define XMC_USIC0_CH1 ((XMC_USIC_CH_t *)USIC0_CH1_BASE)	/**< USIC0 channel 1 base address */
 128:C:/Users/Mafish/Documents/GitHub/MAB_Driver/Libraries/XMCLib/inc\xmc_usic.h **** 
 129:C:/Users/Mafish/Documents/GitHub/MAB_Driver/Libraries/XMCLib/inc\xmc_usic.h **** #if defined(USIC1)
 130:C:/Users/Mafish/Documents/GitHub/MAB_Driver/Libraries/XMCLib/inc\xmc_usic.h **** #define XMC_USIC1 ((XMC_USIC_t *)USIC1_BASE)			/**< USIC1 module base address */
 131:C:/Users/Mafish/Documents/GitHub/MAB_Driver/Libraries/XMCLib/inc\xmc_usic.h **** #define XMC_USIC1_CH0 ((XMC_USIC_CH_t *)USIC1_CH0_BASE)	/**< USIC1 channel 0 base address */
 132:C:/Users/Mafish/Documents/GitHub/MAB_Driver/Libraries/XMCLib/inc\xmc_usic.h **** #define XMC_USIC1_CH1 ((XMC_USIC_CH_t *)USIC1_CH1_BASE)	/**< USIC1 channel 1 base address */
 133:C:/Users/Mafish/Documents/GitHub/MAB_Driver/Libraries/XMCLib/inc\xmc_usic.h **** #endif
 134:C:/Users/Mafish/Documents/GitHub/MAB_Driver/Libraries/XMCLib/inc\xmc_usic.h **** 
 135:C:/Users/Mafish/Documents/GitHub/MAB_Driver/Libraries/XMCLib/inc\xmc_usic.h **** #if defined(USIC2)
 136:C:/Users/Mafish/Documents/GitHub/MAB_Driver/Libraries/XMCLib/inc\xmc_usic.h **** #define XMC_USIC2 ((XMC_USIC_t *)USIC2_BASE)			/**< USIC2 module base address */
 137:C:/Users/Mafish/Documents/GitHub/MAB_Driver/Libraries/XMCLib/inc\xmc_usic.h **** #define XMC_USIC2_CH0 ((XMC_USIC_CH_t *)USIC2_CH0_BASE)	/**< USIC2 channel 0 base address */
 138:C:/Users/Mafish/Documents/GitHub/MAB_Driver/Libraries/XMCLib/inc\xmc_usic.h **** #define XMC_USIC2_CH1 ((XMC_USIC_CH_t *)USIC2_CH1_BASE)	/**< USIC2 channel 1 base address */
 139:C:/Users/Mafish/Documents/GitHub/MAB_Driver/Libraries/XMCLib/inc\xmc_usic.h **** #endif
 140:C:/Users/Mafish/Documents/GitHub/MAB_Driver/Libraries/XMCLib/inc\xmc_usic.h **** 
 141:C:/Users/Mafish/Documents/GitHub/MAB_Driver/Libraries/XMCLib/inc\xmc_usic.h **** #define USIC_CH_DXCR_DSEL_Msk  USIC_CH_DX0CR_DSEL_Msk   /**< Common mask for DSEL bitfield mask in 
 142:C:/Users/Mafish/Documents/GitHub/MAB_Driver/Libraries/XMCLib/inc\xmc_usic.h **** #define USIC_CH_DXCR_DSEL_Pos  USIC_CH_DX0CR_DSEL_Pos   /**< Common mask for DSEL bitfield position
 143:C:/Users/Mafish/Documents/GitHub/MAB_Driver/Libraries/XMCLib/inc\xmc_usic.h **** #define USIC_CH_DXCR_SFSEL_Pos USIC_CH_DX0CR_SFSEL_Pos  /**< Common mask for SFSEL bitfield positio
 144:C:/Users/Mafish/Documents/GitHub/MAB_Driver/Libraries/XMCLib/inc\xmc_usic.h **** #define USIC_CH_DXCR_SFSEL_Msk USIC_CH_DX0CR_SFSEL_Msk  /**< Common mask for SFSEL bitfield mask in
 145:C:/Users/Mafish/Documents/GitHub/MAB_Driver/Libraries/XMCLib/inc\xmc_usic.h **** #define USIC_CH_DXCR_DPOL_Msk  USIC_CH_DX0CR_DPOL_Msk   /**< Common mask for DPOL bitfield mask in 
 146:C:/Users/Mafish/Documents/GitHub/MAB_Driver/Libraries/XMCLib/inc\xmc_usic.h **** #define USIC_CH_DXCR_DFEN_Msk  USIC_CH_DX0CR_DFEN_Msk   /**< Common mask for DFEN bitfield mask in 
 147:C:/Users/Mafish/Documents/GitHub/MAB_Driver/Libraries/XMCLib/inc\xmc_usic.h **** #define USIC_CH_DXCR_DSEN_Msk  USIC_CH_DX0CR_DSEN_Msk   /**< Common mask for DSEN bitfield mask in 
 148:C:/Users/Mafish/Documents/GitHub/MAB_Driver/Libraries/XMCLib/inc\xmc_usic.h **** #define USIC_CH_DXCR_CM_Pos    USIC_CH_DX0CR_CM_Pos     /**< Common mask for CM bitfield position i
 149:C:/Users/Mafish/Documents/GitHub/MAB_Driver/Libraries/XMCLib/inc\xmc_usic.h **** #define USIC_CH_DXCR_CM_Msk    USIC_CH_DX0CR_CM_Msk     /**< Common mask for CM bitfield mask in DX
 150:C:/Users/Mafish/Documents/GitHub/MAB_Driver/Libraries/XMCLib/inc\xmc_usic.h **** #define USIC_CH_DXCR_INSW_Msk  USIC_CH_DX0CR_INSW_Msk   /**< Common mask for INSW bitfield mask in 
 151:C:/Users/Mafish/Documents/GitHub/MAB_Driver/Libraries/XMCLib/inc\xmc_usic.h **** #define USIC_CH_DXCR_INSW_pos  USIC_CH_DX0CR_INSW_Pos   /**< Common mask for INSW bitfield position
 152:C:/Users/Mafish/Documents/GitHub/MAB_Driver/Libraries/XMCLib/inc\xmc_usic.h **** 
 153:C:/Users/Mafish/Documents/GitHub/MAB_Driver/Libraries/XMCLib/inc\xmc_usic.h **** #if UC_FAMILY == XMC1
 154:C:/Users/Mafish/Documents/GitHub/MAB_Driver/Libraries/XMCLib/inc\xmc_usic.h ****  #include "xmc1_usic_map.h"
 155:C:/Users/Mafish/Documents/GitHub/MAB_Driver/Libraries/XMCLib/inc\xmc_usic.h **** #endif
 156:C:/Users/Mafish/Documents/GitHub/MAB_Driver/Libraries/XMCLib/inc\xmc_usic.h **** 
 157:C:/Users/Mafish/Documents/GitHub/MAB_Driver/Libraries/XMCLib/inc\xmc_usic.h **** #if UC_FAMILY == XMC4
 158:C:/Users/Mafish/Documents/GitHub/MAB_Driver/Libraries/XMCLib/inc\xmc_usic.h ****  #include "xmc4_usic_map.h"
 159:C:/Users/Mafish/Documents/GitHub/MAB_Driver/Libraries/XMCLib/inc\xmc_usic.h **** #endif
 160:C:/Users/Mafish/Documents/GitHub/MAB_Driver/Libraries/XMCLib/inc\xmc_usic.h **** 
 161:C:/Users/Mafish/Documents/GitHub/MAB_Driver/Libraries/XMCLib/inc\xmc_usic.h **** /*******************************************************************************
 162:C:/Users/Mafish/Documents/GitHub/MAB_Driver/Libraries/XMCLib/inc\xmc_usic.h ****  * ENUMS
 163:C:/Users/Mafish/Documents/GitHub/MAB_Driver/Libraries/XMCLib/inc\xmc_usic.h ****  *******************************************************************************/
 164:C:/Users/Mafish/Documents/GitHub/MAB_Driver/Libraries/XMCLib/inc\xmc_usic.h **** 
 165:C:/Users/Mafish/Documents/GitHub/MAB_Driver/Libraries/XMCLib/inc\xmc_usic.h **** /**
 166:C:/Users/Mafish/Documents/GitHub/MAB_Driver/Libraries/XMCLib/inc\xmc_usic.h ****  * USIC channel driver status
 167:C:/Users/Mafish/Documents/GitHub/MAB_Driver/Libraries/XMCLib/inc\xmc_usic.h ****  */
 168:C:/Users/Mafish/Documents/GitHub/MAB_Driver/Libraries/XMCLib/inc\xmc_usic.h **** typedef enum XMC_USIC_CH_STATUS
 169:C:/Users/Mafish/Documents/GitHub/MAB_Driver/Libraries/XMCLib/inc\xmc_usic.h **** {
 170:C:/Users/Mafish/Documents/GitHub/MAB_Driver/Libraries/XMCLib/inc\xmc_usic.h ****   XMC_USIC_CH_STATUS_OK,    /**< USIC driver status : OK */
 171:C:/Users/Mafish/Documents/GitHub/MAB_Driver/Libraries/XMCLib/inc\xmc_usic.h ****   XMC_USIC_CH_STATUS_ERROR, /**< USIC driver status : ERROR */
 172:C:/Users/Mafish/Documents/GitHub/MAB_Driver/Libraries/XMCLib/inc\xmc_usic.h ****   XMC_USIC_CH_STATUS_BUSY   /**< USIC driver status : BUSY */
 173:C:/Users/Mafish/Documents/GitHub/MAB_Driver/Libraries/XMCLib/inc\xmc_usic.h **** } XMC_USIC_CH_STATUS_t;
 174:C:/Users/Mafish/Documents/GitHub/MAB_Driver/Libraries/XMCLib/inc\xmc_usic.h **** 
 175:C:/Users/Mafish/Documents/GitHub/MAB_Driver/Libraries/XMCLib/inc\xmc_usic.h **** /**
 176:C:/Users/Mafish/Documents/GitHub/MAB_Driver/Libraries/XMCLib/inc\xmc_usic.h **** * USIC channel kernel mode
 177:C:/Users/Mafish/Documents/GitHub/MAB_Driver/Libraries/XMCLib/inc\xmc_usic.h **** */
 178:C:/Users/Mafish/Documents/GitHub/MAB_Driver/Libraries/XMCLib/inc\xmc_usic.h **** typedef enum XMC_USIC_CH_KERNEL_MODE
 179:C:/Users/Mafish/Documents/GitHub/MAB_Driver/Libraries/XMCLib/inc\xmc_usic.h **** {
 180:C:/Users/Mafish/Documents/GitHub/MAB_Driver/Libraries/XMCLib/inc\xmc_usic.h ****   XMC_USIC_CH_KERNEL_MODE_RUN_0  = 0x0UL,  /**< Run mode 0 (transmission and reception possible)*/
 181:C:/Users/Mafish/Documents/GitHub/MAB_Driver/Libraries/XMCLib/inc\xmc_usic.h ****   XMC_USIC_CH_KERNEL_MODE_RUN_1  = 0x1UL << USIC_CH_KSCFG_NOMCFG_Pos,  /**< Run mode 1 (transmissio
 182:C:/Users/Mafish/Documents/GitHub/MAB_Driver/Libraries/XMCLib/inc\xmc_usic.h ****   XMC_USIC_CH_KERNEL_MODE_STOP_0 = 0x2UL << USIC_CH_KSCFG_NOMCFG_Pos,  /**< Stop mode 0 (no transmi
 183:C:/Users/Mafish/Documents/GitHub/MAB_Driver/Libraries/XMCLib/inc\xmc_usic.h ****   XMC_USIC_CH_KERNEL_MODE_STOP_1 = 0x3UL << USIC_CH_KSCFG_NOMCFG_Pos   /**< Stop mode 1 (both trans
 184:C:/Users/Mafish/Documents/GitHub/MAB_Driver/Libraries/XMCLib/inc\xmc_usic.h **** } XMC_USIC_CH_KERNEL_MODE_t;
 185:C:/Users/Mafish/Documents/GitHub/MAB_Driver/Libraries/XMCLib/inc\xmc_usic.h **** 
 186:C:/Users/Mafish/Documents/GitHub/MAB_Driver/Libraries/XMCLib/inc\xmc_usic.h **** /**
 187:C:/Users/Mafish/Documents/GitHub/MAB_Driver/Libraries/XMCLib/inc\xmc_usic.h ****  * USIC channel operating mode
 188:C:/Users/Mafish/Documents/GitHub/MAB_Driver/Libraries/XMCLib/inc\xmc_usic.h ****  */
 189:C:/Users/Mafish/Documents/GitHub/MAB_Driver/Libraries/XMCLib/inc\xmc_usic.h **** typedef enum XMC_USIC_CH_OPERATING_MODE
 190:C:/Users/Mafish/Documents/GitHub/MAB_Driver/Libraries/XMCLib/inc\xmc_usic.h **** {
 191:C:/Users/Mafish/Documents/GitHub/MAB_Driver/Libraries/XMCLib/inc\xmc_usic.h ****   XMC_USIC_CH_OPERATING_MODE_IDLE = 0x0UL, /**< USIC channel idle */
 192:C:/Users/Mafish/Documents/GitHub/MAB_Driver/Libraries/XMCLib/inc\xmc_usic.h ****   XMC_USIC_CH_OPERATING_MODE_SPI  = 0x1UL << USIC_CH_CCR_MODE_Pos, /**< SPI mode */
 193:C:/Users/Mafish/Documents/GitHub/MAB_Driver/Libraries/XMCLib/inc\xmc_usic.h ****   XMC_USIC_CH_OPERATING_MODE_UART = 0x2UL << USIC_CH_CCR_MODE_Pos, /**< UART mode */
 194:C:/Users/Mafish/Documents/GitHub/MAB_Driver/Libraries/XMCLib/inc\xmc_usic.h ****   XMC_USIC_CH_OPERATING_MODE_I2S  = 0x3UL << USIC_CH_CCR_MODE_Pos, /**< I2S mode */
 195:C:/Users/Mafish/Documents/GitHub/MAB_Driver/Libraries/XMCLib/inc\xmc_usic.h ****   XMC_USIC_CH_OPERATING_MODE_I2C  = 0x4UL << USIC_CH_CCR_MODE_Pos  /**< I2C mode */
 196:C:/Users/Mafish/Documents/GitHub/MAB_Driver/Libraries/XMCLib/inc\xmc_usic.h **** } XMC_USIC_CH_OPERATING_MODE_t;
 197:C:/Users/Mafish/Documents/GitHub/MAB_Driver/Libraries/XMCLib/inc\xmc_usic.h **** 
 198:C:/Users/Mafish/Documents/GitHub/MAB_Driver/Libraries/XMCLib/inc\xmc_usic.h **** /**
 199:C:/Users/Mafish/Documents/GitHub/MAB_Driver/Libraries/XMCLib/inc\xmc_usic.h ****  * USIC channel inputs
 200:C:/Users/Mafish/Documents/GitHub/MAB_Driver/Libraries/XMCLib/inc\xmc_usic.h ****  */
 201:C:/Users/Mafish/Documents/GitHub/MAB_Driver/Libraries/XMCLib/inc\xmc_usic.h **** typedef enum XMC_USIC_CH_INPUT
 202:C:/Users/Mafish/Documents/GitHub/MAB_Driver/Libraries/XMCLib/inc\xmc_usic.h **** {
 203:C:/Users/Mafish/Documents/GitHub/MAB_Driver/Libraries/XMCLib/inc\xmc_usic.h ****   XMC_USIC_CH_INPUT_DX0, /**< DX0 input */
 204:C:/Users/Mafish/Documents/GitHub/MAB_Driver/Libraries/XMCLib/inc\xmc_usic.h ****   XMC_USIC_CH_INPUT_DX1, /**< DX1 input */
 205:C:/Users/Mafish/Documents/GitHub/MAB_Driver/Libraries/XMCLib/inc\xmc_usic.h ****   XMC_USIC_CH_INPUT_DX2, /**< DX2 input */
 206:C:/Users/Mafish/Documents/GitHub/MAB_Driver/Libraries/XMCLib/inc\xmc_usic.h ****   XMC_USIC_CH_INPUT_DX3, /**< DX3 input */
 207:C:/Users/Mafish/Documents/GitHub/MAB_Driver/Libraries/XMCLib/inc\xmc_usic.h ****   XMC_USIC_CH_INPUT_DX4, /**< DX4 input */
 208:C:/Users/Mafish/Documents/GitHub/MAB_Driver/Libraries/XMCLib/inc\xmc_usic.h ****   XMC_USIC_CH_INPUT_DX5  /**< DX5 input */
 209:C:/Users/Mafish/Documents/GitHub/MAB_Driver/Libraries/XMCLib/inc\xmc_usic.h **** } XMC_USIC_CH_INPUT_t;
 210:C:/Users/Mafish/Documents/GitHub/MAB_Driver/Libraries/XMCLib/inc\xmc_usic.h **** 
 211:C:/Users/Mafish/Documents/GitHub/MAB_Driver/Libraries/XMCLib/inc\xmc_usic.h **** /**
 212:C:/Users/Mafish/Documents/GitHub/MAB_Driver/Libraries/XMCLib/inc\xmc_usic.h ****  * USIC channel input source sampling frequency
 213:C:/Users/Mafish/Documents/GitHub/MAB_Driver/Libraries/XMCLib/inc\xmc_usic.h ****  */
 214:C:/Users/Mafish/Documents/GitHub/MAB_Driver/Libraries/XMCLib/inc\xmc_usic.h **** typedef enum XMC_USIC_CH_INPUT_SAMPLING_FREQ
 215:C:/Users/Mafish/Documents/GitHub/MAB_Driver/Libraries/XMCLib/inc\xmc_usic.h **** {
 216:C:/Users/Mafish/Documents/GitHub/MAB_Driver/Libraries/XMCLib/inc\xmc_usic.h ****   XMC_USIC_CH_INPUT_SAMPLING_FREQ_FPERIPH            = 0x0UL, /**< Use fperiph frequency for input 
 217:C:/Users/Mafish/Documents/GitHub/MAB_Driver/Libraries/XMCLib/inc\xmc_usic.h ****   XMC_USIC_CH_INPUT_SAMPLING_FREQ_FRACTIONAL_DIVIDER = 0x1UL << USIC_CH_DXCR_SFSEL_Pos  /**< Use fF
 218:C:/Users/Mafish/Documents/GitHub/MAB_Driver/Libraries/XMCLib/inc\xmc_usic.h **** } XMC_USIC_CH_INPUT_SAMPLING_FREQ_t;
 219:C:/Users/Mafish/Documents/GitHub/MAB_Driver/Libraries/XMCLib/inc\xmc_usic.h **** 
 220:C:/Users/Mafish/Documents/GitHub/MAB_Driver/Libraries/XMCLib/inc\xmc_usic.h **** /**
 221:C:/Users/Mafish/Documents/GitHub/MAB_Driver/Libraries/XMCLib/inc\xmc_usic.h ****  * USIC channel input combination mode
 222:C:/Users/Mafish/Documents/GitHub/MAB_Driver/Libraries/XMCLib/inc\xmc_usic.h ****  */
 223:C:/Users/Mafish/Documents/GitHub/MAB_Driver/Libraries/XMCLib/inc\xmc_usic.h **** typedef enum XMC_USIC_CH_INPUT_COMBINATION_MODE
 224:C:/Users/Mafish/Documents/GitHub/MAB_Driver/Libraries/XMCLib/inc\xmc_usic.h **** {
 225:C:/Users/Mafish/Documents/GitHub/MAB_Driver/Libraries/XMCLib/inc\xmc_usic.h ****   XMC_USIC_CH_INPUT_COMBINATION_MODE_TRIGGER_DISABLED = 0x0UL, /**< The trigger activation is disab
 226:C:/Users/Mafish/Documents/GitHub/MAB_Driver/Libraries/XMCLib/inc\xmc_usic.h ****   XMC_USIC_CH_INPUT_COMBINATION_MODE_RISING_EDGE      = 0x1UL, /**< A rising edge activates DXnT*/
 227:C:/Users/Mafish/Documents/GitHub/MAB_Driver/Libraries/XMCLib/inc\xmc_usic.h ****   XMC_USIC_CH_INPUT_COMBINATION_MODE_FALLING_EDGE     = 0x2UL, /**< A falling edge activates DXnT*/
 228:C:/Users/Mafish/Documents/GitHub/MAB_Driver/Libraries/XMCLib/inc\xmc_usic.h ****   XMC_USIC_CH_INPUT_COMBINATION_MODE_BOTH_EDGES       = 0x3UL, /**< Both edges activate DXnT*/
 229:C:/Users/Mafish/Documents/GitHub/MAB_Driver/Libraries/XMCLib/inc\xmc_usic.h **** } XMC_USIC_CH_INPUT_COMBINATION_MODE_t;
 230:C:/Users/Mafish/Documents/GitHub/MAB_Driver/Libraries/XMCLib/inc\xmc_usic.h **** 
 231:C:/Users/Mafish/Documents/GitHub/MAB_Driver/Libraries/XMCLib/inc\xmc_usic.h **** /**
 232:C:/Users/Mafish/Documents/GitHub/MAB_Driver/Libraries/XMCLib/inc\xmc_usic.h ****  * USIC channel data transmission start modes.
 233:C:/Users/Mafish/Documents/GitHub/MAB_Driver/Libraries/XMCLib/inc\xmc_usic.h ****  * Data shifted out of the transmit pin depends on the value configured for the
 234:C:/Users/Mafish/Documents/GitHub/MAB_Driver/Libraries/XMCLib/inc\xmc_usic.h ****  * TDEN bitfield of the TCSR register. Following enum values are used for configuring
 235:C:/Users/Mafish/Documents/GitHub/MAB_Driver/Libraries/XMCLib/inc\xmc_usic.h ****  * the TCSR->TDEN bitfield.
 236:C:/Users/Mafish/Documents/GitHub/MAB_Driver/Libraries/XMCLib/inc\xmc_usic.h ****  */
 237:C:/Users/Mafish/Documents/GitHub/MAB_Driver/Libraries/XMCLib/inc\xmc_usic.h **** typedef enum XMC_USIC_CH_START_TRANSMISION_MODE
 238:C:/Users/Mafish/Documents/GitHub/MAB_Driver/Libraries/XMCLib/inc\xmc_usic.h **** {
 239:C:/Users/Mafish/Documents/GitHub/MAB_Driver/Libraries/XMCLib/inc\xmc_usic.h ****   XMC_USIC_CH_START_TRANSMISION_DISABLED      = 0x0U, /**< Passive data level is sent out on transm
 240:C:/Users/Mafish/Documents/GitHub/MAB_Driver/Libraries/XMCLib/inc\xmc_usic.h ****   XMC_USIC_CH_START_TRANSMISION_ON_TDV        = 0x1UL << USIC_CH_TCSR_TDEN_Pos, /**< Transmission o
 241:C:/Users/Mafish/Documents/GitHub/MAB_Driver/Libraries/XMCLib/inc\xmc_usic.h ****   XMC_USIC_CH_START_TRANSMISION_ON_TDV_DX2S_0 = 0x2UL << USIC_CH_TCSR_TDEN_Pos, /**< Transmission o
 242:C:/Users/Mafish/Documents/GitHub/MAB_Driver/Libraries/XMCLib/inc\xmc_usic.h ****   XMC_USIC_CH_START_TRANSMISION_ON_TDV_DX2S_1 = 0x3UL << USIC_CH_TCSR_TDEN_Pos  /**< Transmission o
 243:C:/Users/Mafish/Documents/GitHub/MAB_Driver/Libraries/XMCLib/inc\xmc_usic.h **** } XMC_USIC_CH_START_TRANSMISION_MODE_t;
 244:C:/Users/Mafish/Documents/GitHub/MAB_Driver/Libraries/XMCLib/inc\xmc_usic.h **** 
 245:C:/Users/Mafish/Documents/GitHub/MAB_Driver/Libraries/XMCLib/inc\xmc_usic.h **** /**
 246:C:/Users/Mafish/Documents/GitHub/MAB_Driver/Libraries/XMCLib/inc\xmc_usic.h ****  * USIC channel interrupt node pointers
 247:C:/Users/Mafish/Documents/GitHub/MAB_Driver/Libraries/XMCLib/inc\xmc_usic.h ****  */
 248:C:/Users/Mafish/Documents/GitHub/MAB_Driver/Libraries/XMCLib/inc\xmc_usic.h **** typedef enum XMC_USIC_CH_INTERRUPT_NODE_POINTER
 249:C:/Users/Mafish/Documents/GitHub/MAB_Driver/Libraries/XMCLib/inc\xmc_usic.h **** {
 250:C:/Users/Mafish/Documents/GitHub/MAB_Driver/Libraries/XMCLib/inc\xmc_usic.h ****   XMC_USIC_CH_INTERRUPT_NODE_POINTER_TRANSMIT_SHIFT      = USIC_CH_INPR_TSINP_Pos, /**< Node pointe
 251:C:/Users/Mafish/Documents/GitHub/MAB_Driver/Libraries/XMCLib/inc\xmc_usic.h ****   XMC_USIC_CH_INTERRUPT_NODE_POINTER_TRANSMIT_BUFFER     = USIC_CH_INPR_TBINP_Pos, /**< Node pointe
 252:C:/Users/Mafish/Documents/GitHub/MAB_Driver/Libraries/XMCLib/inc\xmc_usic.h ****   XMC_USIC_CH_INTERRUPT_NODE_POINTER_RECEIVE             = USIC_CH_INPR_RINP_Pos,  /**< Node pointe
 253:C:/Users/Mafish/Documents/GitHub/MAB_Driver/Libraries/XMCLib/inc\xmc_usic.h ****   XMC_USIC_CH_INTERRUPT_NODE_POINTER_ALTERNATE_RECEIVE   = USIC_CH_INPR_AINP_Pos,  /**< Node pointe
 254:C:/Users/Mafish/Documents/GitHub/MAB_Driver/Libraries/XMCLib/inc\xmc_usic.h ****   XMC_USIC_CH_INTERRUPT_NODE_POINTER_PROTOCOL            = USIC_CH_INPR_PINP_Pos   /**< Node pointe
 255:C:/Users/Mafish/Documents/GitHub/MAB_Driver/Libraries/XMCLib/inc\xmc_usic.h **** } XMC_USIC_CH_INTERRUPT_NODE_POINTER_t;
 256:C:/Users/Mafish/Documents/GitHub/MAB_Driver/Libraries/XMCLib/inc\xmc_usic.h **** 
 257:C:/Users/Mafish/Documents/GitHub/MAB_Driver/Libraries/XMCLib/inc\xmc_usic.h **** /**
 258:C:/Users/Mafish/Documents/GitHub/MAB_Driver/Libraries/XMCLib/inc\xmc_usic.h ****  * USIC channel events
 259:C:/Users/Mafish/Documents/GitHub/MAB_Driver/Libraries/XMCLib/inc\xmc_usic.h ****  */
 260:C:/Users/Mafish/Documents/GitHub/MAB_Driver/Libraries/XMCLib/inc\xmc_usic.h **** typedef enum XMC_USIC_CH_EVENT
 261:C:/Users/Mafish/Documents/GitHub/MAB_Driver/Libraries/XMCLib/inc\xmc_usic.h **** {
 262:C:/Users/Mafish/Documents/GitHub/MAB_Driver/Libraries/XMCLib/inc\xmc_usic.h ****   XMC_USIC_CH_EVENT_RECEIVE_START       = USIC_CH_CCR_RSIEN_Msk, /**< Receive start event */
 263:C:/Users/Mafish/Documents/GitHub/MAB_Driver/Libraries/XMCLib/inc\xmc_usic.h ****   XMC_USIC_CH_EVENT_DATA_LOST           = USIC_CH_CCR_DLIEN_Msk, /**< Data lost event */
 264:C:/Users/Mafish/Documents/GitHub/MAB_Driver/Libraries/XMCLib/inc\xmc_usic.h ****   XMC_USIC_CH_EVENT_TRANSMIT_SHIFT      = USIC_CH_CCR_TSIEN_Msk, /**< Transmit shift event */
 265:C:/Users/Mafish/Documents/GitHub/MAB_Driver/Libraries/XMCLib/inc\xmc_usic.h ****   XMC_USIC_CH_EVENT_TRANSMIT_BUFFER     = USIC_CH_CCR_TBIEN_Msk, /**< Transmit buffer event */
 266:C:/Users/Mafish/Documents/GitHub/MAB_Driver/Libraries/XMCLib/inc\xmc_usic.h ****   XMC_USIC_CH_EVENT_STANDARD_RECEIVE    = USIC_CH_CCR_RIEN_Msk,  /**< Receive event */
 267:C:/Users/Mafish/Documents/GitHub/MAB_Driver/Libraries/XMCLib/inc\xmc_usic.h ****   XMC_USIC_CH_EVENT_ALTERNATIVE_RECEIVE = USIC_CH_CCR_AIEN_Msk,  /**< Alternate receive event */
 268:C:/Users/Mafish/Documents/GitHub/MAB_Driver/Libraries/XMCLib/inc\xmc_usic.h ****   XMC_USIC_CH_EVENT_BAUD_RATE_GENERATOR = USIC_CH_CCR_BRGIEN_Msk /**< Baudrate generator event */
 269:C:/Users/Mafish/Documents/GitHub/MAB_Driver/Libraries/XMCLib/inc\xmc_usic.h **** } XMC_USIC_CH_EVENT_t;
 270:C:/Users/Mafish/Documents/GitHub/MAB_Driver/Libraries/XMCLib/inc\xmc_usic.h **** 
 271:C:/Users/Mafish/Documents/GitHub/MAB_Driver/Libraries/XMCLib/inc\xmc_usic.h **** /**
 272:C:/Users/Mafish/Documents/GitHub/MAB_Driver/Libraries/XMCLib/inc\xmc_usic.h **** * USIC channel parity mode
 273:C:/Users/Mafish/Documents/GitHub/MAB_Driver/Libraries/XMCLib/inc\xmc_usic.h **** */
 274:C:/Users/Mafish/Documents/GitHub/MAB_Driver/Libraries/XMCLib/inc\xmc_usic.h **** typedef enum XMC_USIC_CH_PARITY_MODE
 275:C:/Users/Mafish/Documents/GitHub/MAB_Driver/Libraries/XMCLib/inc\xmc_usic.h **** {
 276:C:/Users/Mafish/Documents/GitHub/MAB_Driver/Libraries/XMCLib/inc\xmc_usic.h ****   XMC_USIC_CH_PARITY_MODE_NONE     = 0x0UL,  /**< Disable parity mode */
 277:C:/Users/Mafish/Documents/GitHub/MAB_Driver/Libraries/XMCLib/inc\xmc_usic.h ****   XMC_USIC_CH_PARITY_MODE_EVEN     = 0x2UL << USIC_CH_CCR_PM_Pos,  /**< Enable even parity mode */
 278:C:/Users/Mafish/Documents/GitHub/MAB_Driver/Libraries/XMCLib/inc\xmc_usic.h ****   XMC_USIC_CH_PARITY_MODE_ODD      = 0x3UL << USIC_CH_CCR_PM_Pos   /**< Enable odd parity mode */
 279:C:/Users/Mafish/Documents/GitHub/MAB_Driver/Libraries/XMCLib/inc\xmc_usic.h **** } XMC_USIC_CH_PARITY_MODE_t;
 280:C:/Users/Mafish/Documents/GitHub/MAB_Driver/Libraries/XMCLib/inc\xmc_usic.h **** 
 281:C:/Users/Mafish/Documents/GitHub/MAB_Driver/Libraries/XMCLib/inc\xmc_usic.h **** /**
 282:C:/Users/Mafish/Documents/GitHub/MAB_Driver/Libraries/XMCLib/inc\xmc_usic.h **** * USIC channel data output mode
 283:C:/Users/Mafish/Documents/GitHub/MAB_Driver/Libraries/XMCLib/inc\xmc_usic.h **** */
 284:C:/Users/Mafish/Documents/GitHub/MAB_Driver/Libraries/XMCLib/inc\xmc_usic.h **** typedef enum XMC_USIC_CH_DATA_OUTPUT_MODE
 285:C:/Users/Mafish/Documents/GitHub/MAB_Driver/Libraries/XMCLib/inc\xmc_usic.h **** {
 286:C:/Users/Mafish/Documents/GitHub/MAB_Driver/Libraries/XMCLib/inc\xmc_usic.h ****   XMC_USIC_CH_DATA_OUTPUT_MODE_NORMAL   = 0x0UL,  /**< Data output normal mode */
 287:C:/Users/Mafish/Documents/GitHub/MAB_Driver/Libraries/XMCLib/inc\xmc_usic.h ****   XMC_USIC_CH_DATA_OUTPUT_MODE_INVERTED = 0x1UL << USIC_CH_SCTR_DOCFG_Pos   /**< Data output invert
 288:C:/Users/Mafish/Documents/GitHub/MAB_Driver/Libraries/XMCLib/inc\xmc_usic.h **** } XMC_USIC_CH_DATA_OUTPUT_MODE_t;
 289:C:/Users/Mafish/Documents/GitHub/MAB_Driver/Libraries/XMCLib/inc\xmc_usic.h **** 
 290:C:/Users/Mafish/Documents/GitHub/MAB_Driver/Libraries/XMCLib/inc\xmc_usic.h **** /**
 291:C:/Users/Mafish/Documents/GitHub/MAB_Driver/Libraries/XMCLib/inc\xmc_usic.h **** * USIC channel data transmit buffer status
 292:C:/Users/Mafish/Documents/GitHub/MAB_Driver/Libraries/XMCLib/inc\xmc_usic.h **** */
 293:C:/Users/Mafish/Documents/GitHub/MAB_Driver/Libraries/XMCLib/inc\xmc_usic.h **** typedef enum XMC_USIC_CH_TBUF_STATUS
 294:C:/Users/Mafish/Documents/GitHub/MAB_Driver/Libraries/XMCLib/inc\xmc_usic.h **** {
 295:C:/Users/Mafish/Documents/GitHub/MAB_Driver/Libraries/XMCLib/inc\xmc_usic.h ****   XMC_USIC_CH_TBUF_STATUS_IDLE = 0x0UL,                 /**< Transfer buffer is currently idle*/
 296:C:/Users/Mafish/Documents/GitHub/MAB_Driver/Libraries/XMCLib/inc\xmc_usic.h ****   XMC_USIC_CH_TBUF_STATUS_BUSY = USIC_CH_TCSR_TDV_Msk   /**< Transfer buffer is currently busy*/
 297:C:/Users/Mafish/Documents/GitHub/MAB_Driver/Libraries/XMCLib/inc\xmc_usic.h **** } XMC_USIC_CH_TBUF_STATUS_t;
 298:C:/Users/Mafish/Documents/GitHub/MAB_Driver/Libraries/XMCLib/inc\xmc_usic.h **** 
 299:C:/Users/Mafish/Documents/GitHub/MAB_Driver/Libraries/XMCLib/inc\xmc_usic.h **** 
 300:C:/Users/Mafish/Documents/GitHub/MAB_Driver/Libraries/XMCLib/inc\xmc_usic.h **** 
 301:C:/Users/Mafish/Documents/GitHub/MAB_Driver/Libraries/XMCLib/inc\xmc_usic.h **** /**
 302:C:/Users/Mafish/Documents/GitHub/MAB_Driver/Libraries/XMCLib/inc\xmc_usic.h **** * USIC channel data transmit buffer status modification
 303:C:/Users/Mafish/Documents/GitHub/MAB_Driver/Libraries/XMCLib/inc\xmc_usic.h **** */
 304:C:/Users/Mafish/Documents/GitHub/MAB_Driver/Libraries/XMCLib/inc\xmc_usic.h **** typedef enum XMC_USIC_CH_TBUF_STATUS_SET
 305:C:/Users/Mafish/Documents/GitHub/MAB_Driver/Libraries/XMCLib/inc\xmc_usic.h **** {
 306:C:/Users/Mafish/Documents/GitHub/MAB_Driver/Libraries/XMCLib/inc\xmc_usic.h ****   XMC_USIC_CH_TBUF_STATUS_SET_BUSY   = 0x1UL, /**< Set Transfer buffer status to busy*/
 307:C:/Users/Mafish/Documents/GitHub/MAB_Driver/Libraries/XMCLib/inc\xmc_usic.h ****   XMC_USIC_CH_TBUF_STATUS_SET_IDLE   = 0x2UL  /**< Set Transfer buffer status to idle*/
 308:C:/Users/Mafish/Documents/GitHub/MAB_Driver/Libraries/XMCLib/inc\xmc_usic.h **** } XMC_USIC_CH_TBUF_STATUS_SET_t;
 309:C:/Users/Mafish/Documents/GitHub/MAB_Driver/Libraries/XMCLib/inc\xmc_usic.h **** 
 310:C:/Users/Mafish/Documents/GitHub/MAB_Driver/Libraries/XMCLib/inc\xmc_usic.h **** /**
 311:C:/Users/Mafish/Documents/GitHub/MAB_Driver/Libraries/XMCLib/inc\xmc_usic.h **** * USIC channel receive buffer status
 312:C:/Users/Mafish/Documents/GitHub/MAB_Driver/Libraries/XMCLib/inc\xmc_usic.h **** */
 313:C:/Users/Mafish/Documents/GitHub/MAB_Driver/Libraries/XMCLib/inc\xmc_usic.h **** typedef enum XMC_USIC_CH_RBUF_STATUS
 314:C:/Users/Mafish/Documents/GitHub/MAB_Driver/Libraries/XMCLib/inc\xmc_usic.h **** {
 315:C:/Users/Mafish/Documents/GitHub/MAB_Driver/Libraries/XMCLib/inc\xmc_usic.h ****   XMC_USIC_CH_RBUF_STATUS_DATA_VALID0 = USIC_CH_RBUFSR_RDV0_Msk, /**< RBUF0 data has not yet been r
 316:C:/Users/Mafish/Documents/GitHub/MAB_Driver/Libraries/XMCLib/inc\xmc_usic.h ****   XMC_USIC_CH_RBUF_STATUS_DATA_VALID1 = USIC_CH_RBUFSR_RDV1_Msk  /**< RBUF1 data has not yet been r
 317:C:/Users/Mafish/Documents/GitHub/MAB_Driver/Libraries/XMCLib/inc\xmc_usic.h **** } XMC_USIC_CH_RBUF_STATUS_t;
 318:C:/Users/Mafish/Documents/GitHub/MAB_Driver/Libraries/XMCLib/inc\xmc_usic.h **** 
 319:C:/Users/Mafish/Documents/GitHub/MAB_Driver/Libraries/XMCLib/inc\xmc_usic.h **** /**
 320:C:/Users/Mafish/Documents/GitHub/MAB_Driver/Libraries/XMCLib/inc\xmc_usic.h ****  * USIC channel output signal passive data level
 321:C:/Users/Mafish/Documents/GitHub/MAB_Driver/Libraries/XMCLib/inc\xmc_usic.h **** */
 322:C:/Users/Mafish/Documents/GitHub/MAB_Driver/Libraries/XMCLib/inc\xmc_usic.h **** typedef enum XMC_USCI_CH_PASSIVE_DATA_LEVEL
 323:C:/Users/Mafish/Documents/GitHub/MAB_Driver/Libraries/XMCLib/inc\xmc_usic.h **** {
 324:C:/Users/Mafish/Documents/GitHub/MAB_Driver/Libraries/XMCLib/inc\xmc_usic.h ****   XMC_USIC_CH_PASSIVE_DATA_LEVEL0 = 0x0UL, /**< Passive level(idle mode signal level) 0 */
 325:C:/Users/Mafish/Documents/GitHub/MAB_Driver/Libraries/XMCLib/inc\xmc_usic.h ****   XMC_USIC_CH_PASSIVE_DATA_LEVEL1 = 0x1UL << USIC_CH_SCTR_PDL_Pos  /**< Passive level(idle mode sig
 326:C:/Users/Mafish/Documents/GitHub/MAB_Driver/Libraries/XMCLib/inc\xmc_usic.h **** } XMC_USIC_CH_PASSIVE_DATA_LEVEL_t;
 327:C:/Users/Mafish/Documents/GitHub/MAB_Driver/Libraries/XMCLib/inc\xmc_usic.h **** 
 328:C:/Users/Mafish/Documents/GitHub/MAB_Driver/Libraries/XMCLib/inc\xmc_usic.h **** /**
 329:C:/Users/Mafish/Documents/GitHub/MAB_Driver/Libraries/XMCLib/inc\xmc_usic.h **** * USIC channel receive FIFO size
 330:C:/Users/Mafish/Documents/GitHub/MAB_Driver/Libraries/XMCLib/inc\xmc_usic.h **** */
 331:C:/Users/Mafish/Documents/GitHub/MAB_Driver/Libraries/XMCLib/inc\xmc_usic.h **** typedef enum XMC_USIC_CH_FIFO_SIZE
 332:C:/Users/Mafish/Documents/GitHub/MAB_Driver/Libraries/XMCLib/inc\xmc_usic.h **** {
 333:C:/Users/Mafish/Documents/GitHub/MAB_Driver/Libraries/XMCLib/inc\xmc_usic.h ****   XMC_USIC_CH_FIFO_DISABLED     = 0x0U,  /**< FIFO Disabled */
 334:C:/Users/Mafish/Documents/GitHub/MAB_Driver/Libraries/XMCLib/inc\xmc_usic.h ****   XMC_USIC_CH_FIFO_SIZE_2WORDS  = 0x1U,  /**< FIFO size: 2 words */
 335:C:/Users/Mafish/Documents/GitHub/MAB_Driver/Libraries/XMCLib/inc\xmc_usic.h ****   XMC_USIC_CH_FIFO_SIZE_4WORDS  = 0x2U,  /**< FIFO size: 4 words */
 336:C:/Users/Mafish/Documents/GitHub/MAB_Driver/Libraries/XMCLib/inc\xmc_usic.h ****   XMC_USIC_CH_FIFO_SIZE_8WORDS  = 0x3U,  /**< FIFO size: 8 words */
 337:C:/Users/Mafish/Documents/GitHub/MAB_Driver/Libraries/XMCLib/inc\xmc_usic.h ****   XMC_USIC_CH_FIFO_SIZE_16WORDS = 0x4U,  /**< FIFO size: 16 words */
 338:C:/Users/Mafish/Documents/GitHub/MAB_Driver/Libraries/XMCLib/inc\xmc_usic.h ****   XMC_USIC_CH_FIFO_SIZE_32WORDS = 0x5U,  /**< FIFO size: 32 words */
 339:C:/Users/Mafish/Documents/GitHub/MAB_Driver/Libraries/XMCLib/inc\xmc_usic.h ****   XMC_USIC_CH_FIFO_SIZE_64WORDS = 0x6U   /**< FIFO size: 64 words */
 340:C:/Users/Mafish/Documents/GitHub/MAB_Driver/Libraries/XMCLib/inc\xmc_usic.h **** } XMC_USIC_CH_FIFO_SIZE_t;
 341:C:/Users/Mafish/Documents/GitHub/MAB_Driver/Libraries/XMCLib/inc\xmc_usic.h **** 
 342:C:/Users/Mafish/Documents/GitHub/MAB_Driver/Libraries/XMCLib/inc\xmc_usic.h **** /**
 343:C:/Users/Mafish/Documents/GitHub/MAB_Driver/Libraries/XMCLib/inc\xmc_usic.h **** * USIC channel transmit FIFO interrupt node pointers
 344:C:/Users/Mafish/Documents/GitHub/MAB_Driver/Libraries/XMCLib/inc\xmc_usic.h **** */
 345:C:/Users/Mafish/Documents/GitHub/MAB_Driver/Libraries/XMCLib/inc\xmc_usic.h **** typedef enum XMC_USIC_CH_TXFIFO_INTERRUPT_NODE_POINTER
 346:C:/Users/Mafish/Documents/GitHub/MAB_Driver/Libraries/XMCLib/inc\xmc_usic.h **** {
 347:C:/Users/Mafish/Documents/GitHub/MAB_Driver/Libraries/XMCLib/inc\xmc_usic.h ****   XMC_USIC_CH_TXFIFO_INTERRUPT_NODE_POINTER_STANDARD  = USIC_CH_TBCTR_STBINP_Pos,  /**< Node pointe
 348:C:/Users/Mafish/Documents/GitHub/MAB_Driver/Libraries/XMCLib/inc\xmc_usic.h ****   XMC_USIC_CH_TXFIFO_INTERRUPT_NODE_POINTER_ALTERNATE = USIC_CH_TBCTR_ATBINP_Pos   /**< Node pointe
 349:C:/Users/Mafish/Documents/GitHub/MAB_Driver/Libraries/XMCLib/inc\xmc_usic.h **** } XMC_USIC_CH_TXFIFO_INTERRUPT_NODE_POINTER_t;
 350:C:/Users/Mafish/Documents/GitHub/MAB_Driver/Libraries/XMCLib/inc\xmc_usic.h **** 
 351:C:/Users/Mafish/Documents/GitHub/MAB_Driver/Libraries/XMCLib/inc\xmc_usic.h **** /**
 352:C:/Users/Mafish/Documents/GitHub/MAB_Driver/Libraries/XMCLib/inc\xmc_usic.h **** * USIC channel transmit FIFO event configuration
 353:C:/Users/Mafish/Documents/GitHub/MAB_Driver/Libraries/XMCLib/inc\xmc_usic.h **** */
 354:C:/Users/Mafish/Documents/GitHub/MAB_Driver/Libraries/XMCLib/inc\xmc_usic.h **** typedef enum XMC_USIC_CH_TXFIFO_EVENT_CONF
 355:C:/Users/Mafish/Documents/GitHub/MAB_Driver/Libraries/XMCLib/inc\xmc_usic.h **** {
 356:C:/Users/Mafish/Documents/GitHub/MAB_Driver/Libraries/XMCLib/inc\xmc_usic.h ****   XMC_USIC_CH_TXFIFO_EVENT_CONF_STANDARD  = USIC_CH_TBCTR_STBIEN_Msk,   /**< Enable FIFO standard t
 357:C:/Users/Mafish/Documents/GitHub/MAB_Driver/Libraries/XMCLib/inc\xmc_usic.h ****   XMC_USIC_CH_TXFIFO_EVENT_CONF_ERROR     = (int32_t)USIC_CH_TBCTR_TBERIEN_Msk  /**< Enable transmi
 358:C:/Users/Mafish/Documents/GitHub/MAB_Driver/Libraries/XMCLib/inc\xmc_usic.h **** } XMC_USIC_CH_TXFIFO_EVENT_CONF_t;
 359:C:/Users/Mafish/Documents/GitHub/MAB_Driver/Libraries/XMCLib/inc\xmc_usic.h **** 
 360:C:/Users/Mafish/Documents/GitHub/MAB_Driver/Libraries/XMCLib/inc\xmc_usic.h **** /**
 361:C:/Users/Mafish/Documents/GitHub/MAB_Driver/Libraries/XMCLib/inc\xmc_usic.h **** * USIC channel transmit FIFO status
 362:C:/Users/Mafish/Documents/GitHub/MAB_Driver/Libraries/XMCLib/inc\xmc_usic.h **** */
 363:C:/Users/Mafish/Documents/GitHub/MAB_Driver/Libraries/XMCLib/inc\xmc_usic.h **** typedef enum XMC_USIC_CH_TXFIFO_EVENT
 364:C:/Users/Mafish/Documents/GitHub/MAB_Driver/Libraries/XMCLib/inc\xmc_usic.h **** {
 365:C:/Users/Mafish/Documents/GitHub/MAB_Driver/Libraries/XMCLib/inc\xmc_usic.h ****   XMC_USIC_CH_TXFIFO_EVENT_STANDARD = USIC_CH_TRBSR_STBI_Msk,    /**< Transmit FIFO status: Standar
 366:C:/Users/Mafish/Documents/GitHub/MAB_Driver/Libraries/XMCLib/inc\xmc_usic.h ****   XMC_USIC_CH_TXFIFO_EVENT_ERROR    = USIC_CH_TRBSR_TBERI_Msk    /**< Transmit FIFO status: Error e
 367:C:/Users/Mafish/Documents/GitHub/MAB_Driver/Libraries/XMCLib/inc\xmc_usic.h **** } XMC_USIC_CH_TXFIFO_EVENT_t;
 368:C:/Users/Mafish/Documents/GitHub/MAB_Driver/Libraries/XMCLib/inc\xmc_usic.h **** 
 369:C:/Users/Mafish/Documents/GitHub/MAB_Driver/Libraries/XMCLib/inc\xmc_usic.h **** /**
 370:C:/Users/Mafish/Documents/GitHub/MAB_Driver/Libraries/XMCLib/inc\xmc_usic.h **** * USIC channel receive FIFO interrupt node pointers
 371:C:/Users/Mafish/Documents/GitHub/MAB_Driver/Libraries/XMCLib/inc\xmc_usic.h **** */
 372:C:/Users/Mafish/Documents/GitHub/MAB_Driver/Libraries/XMCLib/inc\xmc_usic.h **** typedef enum XMC_USIC_CH_RXFIFO_INTERRUPT_NODE_POINTER
 373:C:/Users/Mafish/Documents/GitHub/MAB_Driver/Libraries/XMCLib/inc\xmc_usic.h **** {
 374:C:/Users/Mafish/Documents/GitHub/MAB_Driver/Libraries/XMCLib/inc\xmc_usic.h ****   XMC_USIC_CH_RXFIFO_INTERRUPT_NODE_POINTER_STANDARD  = USIC_CH_RBCTR_SRBINP_Pos, /**< Node pointer
 375:C:/Users/Mafish/Documents/GitHub/MAB_Driver/Libraries/XMCLib/inc\xmc_usic.h ****   XMC_USIC_CH_RXFIFO_INTERRUPT_NODE_POINTER_ALTERNATE = USIC_CH_RBCTR_ARBINP_Pos  /**< Node pointer
 376:C:/Users/Mafish/Documents/GitHub/MAB_Driver/Libraries/XMCLib/inc\xmc_usic.h **** } XMC_USIC_CH_RXFIFO_INTERRUPT_NODE_POINTER_t;
 377:C:/Users/Mafish/Documents/GitHub/MAB_Driver/Libraries/XMCLib/inc\xmc_usic.h **** 
 378:C:/Users/Mafish/Documents/GitHub/MAB_Driver/Libraries/XMCLib/inc\xmc_usic.h **** /**
 379:C:/Users/Mafish/Documents/GitHub/MAB_Driver/Libraries/XMCLib/inc\xmc_usic.h **** * USIC channel receive FIFO event configuration
 380:C:/Users/Mafish/Documents/GitHub/MAB_Driver/Libraries/XMCLib/inc\xmc_usic.h **** */
 381:C:/Users/Mafish/Documents/GitHub/MAB_Driver/Libraries/XMCLib/inc\xmc_usic.h **** typedef enum XMC_USIC_CH_RXFIFO_EVENT_CONF
 382:C:/Users/Mafish/Documents/GitHub/MAB_Driver/Libraries/XMCLib/inc\xmc_usic.h **** {
 383:C:/Users/Mafish/Documents/GitHub/MAB_Driver/Libraries/XMCLib/inc\xmc_usic.h ****   XMC_USIC_CH_RXFIFO_EVENT_CONF_STANDARD  = USIC_CH_RBCTR_SRBIEN_Msk,   /**< Enable FIFO standard r
 384:C:/Users/Mafish/Documents/GitHub/MAB_Driver/Libraries/XMCLib/inc\xmc_usic.h ****   XMC_USIC_CH_RXFIFO_EVENT_CONF_ERROR     = (int32_t)USIC_CH_RBCTR_RBERIEN_Msk,  /**< Enable receiv
 385:C:/Users/Mafish/Documents/GitHub/MAB_Driver/Libraries/XMCLib/inc\xmc_usic.h ****   XMC_USIC_CH_RXFIFO_EVENT_CONF_ALTERNATE = USIC_CH_RBCTR_ARBIEN_Msk   /**< Enable FIFO alternative
 386:C:/Users/Mafish/Documents/GitHub/MAB_Driver/Libraries/XMCLib/inc\xmc_usic.h **** } XMC_USIC_CH_RXFIFO_EVENT_CONF_t;
 387:C:/Users/Mafish/Documents/GitHub/MAB_Driver/Libraries/XMCLib/inc\xmc_usic.h **** 
 388:C:/Users/Mafish/Documents/GitHub/MAB_Driver/Libraries/XMCLib/inc\xmc_usic.h **** /**
 389:C:/Users/Mafish/Documents/GitHub/MAB_Driver/Libraries/XMCLib/inc\xmc_usic.h **** * USIC channel receive FIFO status
 390:C:/Users/Mafish/Documents/GitHub/MAB_Driver/Libraries/XMCLib/inc\xmc_usic.h **** */
 391:C:/Users/Mafish/Documents/GitHub/MAB_Driver/Libraries/XMCLib/inc\xmc_usic.h **** typedef enum XMC_USIC_CH_RXFIFO_EVENT
 392:C:/Users/Mafish/Documents/GitHub/MAB_Driver/Libraries/XMCLib/inc\xmc_usic.h **** {
 393:C:/Users/Mafish/Documents/GitHub/MAB_Driver/Libraries/XMCLib/inc\xmc_usic.h ****   XMC_USIC_CH_RXFIFO_EVENT_STANDARD  = USIC_CH_TRBSR_SRBI_Msk,   /**< Receive FIFO status: Standard
 394:C:/Users/Mafish/Documents/GitHub/MAB_Driver/Libraries/XMCLib/inc\xmc_usic.h ****   XMC_USIC_CH_RXFIFO_EVENT_ERROR     = USIC_CH_TRBSR_RBERI_Msk,  /**< Receive FIFO status: Error ev
 395:C:/Users/Mafish/Documents/GitHub/MAB_Driver/Libraries/XMCLib/inc\xmc_usic.h ****   XMC_USIC_CH_RXFIFO_EVENT_ALTERNATE = USIC_CH_TRBSR_ARBI_Msk    /**< Receive FIFO status: Alternat
 396:C:/Users/Mafish/Documents/GitHub/MAB_Driver/Libraries/XMCLib/inc\xmc_usic.h **** } XMC_USIC_CH_RXFIFO_EVENT_t;
 397:C:/Users/Mafish/Documents/GitHub/MAB_Driver/Libraries/XMCLib/inc\xmc_usic.h **** 
 398:C:/Users/Mafish/Documents/GitHub/MAB_Driver/Libraries/XMCLib/inc\xmc_usic.h **** /**
 399:C:/Users/Mafish/Documents/GitHub/MAB_Driver/Libraries/XMCLib/inc\xmc_usic.h **** * USIC channel baudrate generator clock source
 400:C:/Users/Mafish/Documents/GitHub/MAB_Driver/Libraries/XMCLib/inc\xmc_usic.h **** */
 401:C:/Users/Mafish/Documents/GitHub/MAB_Driver/Libraries/XMCLib/inc\xmc_usic.h **** typedef enum XMC_USIC_CH_BRG_CLOCK_SOURCE
 402:C:/Users/Mafish/Documents/GitHub/MAB_Driver/Libraries/XMCLib/inc\xmc_usic.h **** {
 403:C:/Users/Mafish/Documents/GitHub/MAB_Driver/Libraries/XMCLib/inc\xmc_usic.h ****   XMC_USIC_CH_BRG_CLOCK_SOURCE_DIVIDER = 0x0UL, /**< Baudrate generator clock source : Source divid
 404:C:/Users/Mafish/Documents/GitHub/MAB_Driver/Libraries/XMCLib/inc\xmc_usic.h ****   XMC_USIC_CH_BRG_CLOCK_SOURCE_DX1T    = 0x2UL << USIC_CH_BRG_CLKSEL_Pos  /**< Baudrate generator c
 405:C:/Users/Mafish/Documents/GitHub/MAB_Driver/Libraries/XMCLib/inc\xmc_usic.h **** } XMC_USIC_CH_BRG_CLOCK_SOURCE_t;
 406:C:/Users/Mafish/Documents/GitHub/MAB_Driver/Libraries/XMCLib/inc\xmc_usic.h **** 
 407:C:/Users/Mafish/Documents/GitHub/MAB_Driver/Libraries/XMCLib/inc\xmc_usic.h **** /**
 408:C:/Users/Mafish/Documents/GitHub/MAB_Driver/Libraries/XMCLib/inc\xmc_usic.h **** * USIC channel baudrate generator divider mode
 409:C:/Users/Mafish/Documents/GitHub/MAB_Driver/Libraries/XMCLib/inc\xmc_usic.h **** */
 410:C:/Users/Mafish/Documents/GitHub/MAB_Driver/Libraries/XMCLib/inc\xmc_usic.h **** typedef enum XMC_USIC_CH_BRG_CLOCK_DIVIDER_MODE
 411:C:/Users/Mafish/Documents/GitHub/MAB_Driver/Libraries/XMCLib/inc\xmc_usic.h **** {
 412:C:/Users/Mafish/Documents/GitHub/MAB_Driver/Libraries/XMCLib/inc\xmc_usic.h ****   XMC_USIC_CH_BRG_CLOCK_DIVIDER_MODE_DISABLED   = 0x0UL, /**< Baudrate generator clock divider: Dis
 413:C:/Users/Mafish/Documents/GitHub/MAB_Driver/Libraries/XMCLib/inc\xmc_usic.h ****   XMC_USIC_CH_BRG_CLOCK_DIVIDER_MODE_NORMAL     = 0x1UL << USIC_CH_FDR_DM_Pos, /**< Baudrate genera
 414:C:/Users/Mafish/Documents/GitHub/MAB_Driver/Libraries/XMCLib/inc\xmc_usic.h ****   XMC_USIC_CH_BRG_CLOCK_DIVIDER_MODE_FRACTIONAL = 0x2UL << USIC_CH_FDR_DM_Pos  /**< Baudrate genera
 415:C:/Users/Mafish/Documents/GitHub/MAB_Driver/Libraries/XMCLib/inc\xmc_usic.h **** } XMC_USIC_CH_BRG_CLOCK_DIVIDER_MODE_t;
 416:C:/Users/Mafish/Documents/GitHub/MAB_Driver/Libraries/XMCLib/inc\xmc_usic.h **** 
 417:C:/Users/Mafish/Documents/GitHub/MAB_Driver/Libraries/XMCLib/inc\xmc_usic.h **** /**
 418:C:/Users/Mafish/Documents/GitHub/MAB_Driver/Libraries/XMCLib/inc\xmc_usic.h **** * USIC channel baudrate generator master clock passive level
 419:C:/Users/Mafish/Documents/GitHub/MAB_Driver/Libraries/XMCLib/inc\xmc_usic.h **** */
 420:C:/Users/Mafish/Documents/GitHub/MAB_Driver/Libraries/XMCLib/inc\xmc_usic.h **** typedef enum XMC_USIC_CH_BRG_MASTER_CLOCK_PASSIVE_LEVEL
 421:C:/Users/Mafish/Documents/GitHub/MAB_Driver/Libraries/XMCLib/inc\xmc_usic.h **** {
 422:C:/Users/Mafish/Documents/GitHub/MAB_Driver/Libraries/XMCLib/inc\xmc_usic.h ****   XMC_USIC_CH_BRG_MASTER_CLOCK_PASSIVE_LEVEL_0 = 0x0UL, /**< Baudrate generator master clock passiv
 423:C:/Users/Mafish/Documents/GitHub/MAB_Driver/Libraries/XMCLib/inc\xmc_usic.h ****   XMC_USIC_CH_BRG_MASTER_CLOCK_PASSIVE_LEVEL_1 = 0x1UL << USIC_CH_BRG_MCLKCFG_Pos  /**< Baudrate ge
 424:C:/Users/Mafish/Documents/GitHub/MAB_Driver/Libraries/XMCLib/inc\xmc_usic.h **** } XMC_USIC_CH_BRG_MASTER_CLOCK_PASSIVE_LEVEL_t;
 425:C:/Users/Mafish/Documents/GitHub/MAB_Driver/Libraries/XMCLib/inc\xmc_usic.h **** 
 426:C:/Users/Mafish/Documents/GitHub/MAB_Driver/Libraries/XMCLib/inc\xmc_usic.h **** /**
 427:C:/Users/Mafish/Documents/GitHub/MAB_Driver/Libraries/XMCLib/inc\xmc_usic.h **** * USIC channel baudrate generator shift clock passive level
 428:C:/Users/Mafish/Documents/GitHub/MAB_Driver/Libraries/XMCLib/inc\xmc_usic.h **** */
 429:C:/Users/Mafish/Documents/GitHub/MAB_Driver/Libraries/XMCLib/inc\xmc_usic.h **** typedef enum XMC_USIC_CH_BRG_SHIFT_CLOCK_PASSIVE_LEVEL
 430:C:/Users/Mafish/Documents/GitHub/MAB_Driver/Libraries/XMCLib/inc\xmc_usic.h **** {
 431:C:/Users/Mafish/Documents/GitHub/MAB_Driver/Libraries/XMCLib/inc\xmc_usic.h ****   XMC_USIC_CH_BRG_SHIFT_CLOCK_PASSIVE_LEVEL_0_DELAY_DISABLED = 0x0UL, /**< Shift clock passive leve
 432:C:/Users/Mafish/Documents/GitHub/MAB_Driver/Libraries/XMCLib/inc\xmc_usic.h ****   XMC_USIC_CH_BRG_SHIFT_CLOCK_PASSIVE_LEVEL_1_DELAY_DISABLED = 0x1UL << USIC_CH_BRG_SCLKCFG_Pos, /*
 433:C:/Users/Mafish/Documents/GitHub/MAB_Driver/Libraries/XMCLib/inc\xmc_usic.h ****   XMC_USIC_CH_BRG_SHIFT_CLOCK_PASSIVE_LEVEL_0_DELAY_ENABLED  = (int32_t)(0x2UL << USIC_CH_BRG_SCLKC
 434:C:/Users/Mafish/Documents/GitHub/MAB_Driver/Libraries/XMCLib/inc\xmc_usic.h ****   XMC_USIC_CH_BRG_SHIFT_CLOCK_PASSIVE_LEVEL_1_DELAY_ENABLED  = (int32_t)(0x3UL << USIC_CH_BRG_SCLKC
 435:C:/Users/Mafish/Documents/GitHub/MAB_Driver/Libraries/XMCLib/inc\xmc_usic.h **** } XMC_USIC_CH_BRG_SHIFT_CLOCK_PASSIVE_LEVEL_t;
 436:C:/Users/Mafish/Documents/GitHub/MAB_Driver/Libraries/XMCLib/inc\xmc_usic.h **** 
 437:C:/Users/Mafish/Documents/GitHub/MAB_Driver/Libraries/XMCLib/inc\xmc_usic.h **** /**
 438:C:/Users/Mafish/Documents/GitHub/MAB_Driver/Libraries/XMCLib/inc\xmc_usic.h **** * USIC channel baudrate generator shift clock output
 439:C:/Users/Mafish/Documents/GitHub/MAB_Driver/Libraries/XMCLib/inc\xmc_usic.h **** */
 440:C:/Users/Mafish/Documents/GitHub/MAB_Driver/Libraries/XMCLib/inc\xmc_usic.h **** typedef enum XMC_USIC_CH_BRG_SHIFT_CLOCK_OUTPUT
 441:C:/Users/Mafish/Documents/GitHub/MAB_Driver/Libraries/XMCLib/inc\xmc_usic.h **** {
 442:C:/Users/Mafish/Documents/GitHub/MAB_Driver/Libraries/XMCLib/inc\xmc_usic.h ****   XMC_USIC_CH_BRG_SHIFT_CLOCK_OUTPUT_SCLK = 0x0UL, /**< Baudrate generator shift clock output: SCL.
 443:C:/Users/Mafish/Documents/GitHub/MAB_Driver/Libraries/XMCLib/inc\xmc_usic.h ****   XMC_USIC_CH_BRG_SHIFT_CLOCK_OUTPUT_DX1 = 0x1UL << USIC_CH_BRG_SCLKOSEL_Pos   /**< Baudrate genera
 444:C:/Users/Mafish/Documents/GitHub/MAB_Driver/Libraries/XMCLib/inc\xmc_usic.h **** } XMC_USIC_CH_BRG_SHIFT_CLOCK_OUTPUT_t;
 445:C:/Users/Mafish/Documents/GitHub/MAB_Driver/Libraries/XMCLib/inc\xmc_usic.h **** 
 446:C:/Users/Mafish/Documents/GitHub/MAB_Driver/Libraries/XMCLib/inc\xmc_usic.h **** /**
 447:C:/Users/Mafish/Documents/GitHub/MAB_Driver/Libraries/XMCLib/inc\xmc_usic.h **** * USIC channel shift direction.
 448:C:/Users/Mafish/Documents/GitHub/MAB_Driver/Libraries/XMCLib/inc\xmc_usic.h **** * Defines the shift direction of the data words for transmission and reception
 449:C:/Users/Mafish/Documents/GitHub/MAB_Driver/Libraries/XMCLib/inc\xmc_usic.h **** */
 450:C:/Users/Mafish/Documents/GitHub/MAB_Driver/Libraries/XMCLib/inc\xmc_usic.h **** typedef enum XMC_USIC_CH_SHIFT_DIRECTION
 451:C:/Users/Mafish/Documents/GitHub/MAB_Driver/Libraries/XMCLib/inc\xmc_usic.h **** {
 452:C:/Users/Mafish/Documents/GitHub/MAB_Driver/Libraries/XMCLib/inc\xmc_usic.h ****   XMC_USIC_CH_SHIFT_DIRECTION_LSB_FIRST = 0x0UL, /**< Shift LSB first. The first data bit of a data
 453:C:/Users/Mafish/Documents/GitHub/MAB_Driver/Libraries/XMCLib/inc\xmc_usic.h ****   XMC_USIC_CH_SHIFT_DIRECTION_MSB_FIRST = 0x1UL << USIC_CH_SCTR_SDIR_Msk /**< Shift MSB first. The 
 454:C:/Users/Mafish/Documents/GitHub/MAB_Driver/Libraries/XMCLib/inc\xmc_usic.h **** } XMC_USIC_CH_SHIFT_DIRECTION_t;
 455:C:/Users/Mafish/Documents/GitHub/MAB_Driver/Libraries/XMCLib/inc\xmc_usic.h **** 
 456:C:/Users/Mafish/Documents/GitHub/MAB_Driver/Libraries/XMCLib/inc\xmc_usic.h **** 
 457:C:/Users/Mafish/Documents/GitHub/MAB_Driver/Libraries/XMCLib/inc\xmc_usic.h **** /*******************************************************************************
 458:C:/Users/Mafish/Documents/GitHub/MAB_Driver/Libraries/XMCLib/inc\xmc_usic.h ****  * DATA STRUCTURES
 459:C:/Users/Mafish/Documents/GitHub/MAB_Driver/Libraries/XMCLib/inc\xmc_usic.h ****  *******************************************************************************/
 460:C:/Users/Mafish/Documents/GitHub/MAB_Driver/Libraries/XMCLib/inc\xmc_usic.h **** 
 461:C:/Users/Mafish/Documents/GitHub/MAB_Driver/Libraries/XMCLib/inc\xmc_usic.h **** /*Anonymous structure/union guard start*/
 462:C:/Users/Mafish/Documents/GitHub/MAB_Driver/Libraries/XMCLib/inc\xmc_usic.h **** #if defined(__CC_ARM)
 463:C:/Users/Mafish/Documents/GitHub/MAB_Driver/Libraries/XMCLib/inc\xmc_usic.h ****   #pragma push
 464:C:/Users/Mafish/Documents/GitHub/MAB_Driver/Libraries/XMCLib/inc\xmc_usic.h ****   #pragma anon_unions
 465:C:/Users/Mafish/Documents/GitHub/MAB_Driver/Libraries/XMCLib/inc\xmc_usic.h **** #elif defined(__TASKING__)
 466:C:/Users/Mafish/Documents/GitHub/MAB_Driver/Libraries/XMCLib/inc\xmc_usic.h ****   #pragma warning 586
 467:C:/Users/Mafish/Documents/GitHub/MAB_Driver/Libraries/XMCLib/inc\xmc_usic.h **** #endif
 468:C:/Users/Mafish/Documents/GitHub/MAB_Driver/Libraries/XMCLib/inc\xmc_usic.h **** 
 469:C:/Users/Mafish/Documents/GitHub/MAB_Driver/Libraries/XMCLib/inc\xmc_usic.h **** /**
 470:C:/Users/Mafish/Documents/GitHub/MAB_Driver/Libraries/XMCLib/inc\xmc_usic.h ****  * USIC module structure
 471:C:/Users/Mafish/Documents/GitHub/MAB_Driver/Libraries/XMCLib/inc\xmc_usic.h ****  */
 472:C:/Users/Mafish/Documents/GitHub/MAB_Driver/Libraries/XMCLib/inc\xmc_usic.h **** typedef USIC_GLOBAL_TypeDef XMC_USIC_t;
 473:C:/Users/Mafish/Documents/GitHub/MAB_Driver/Libraries/XMCLib/inc\xmc_usic.h **** 
 474:C:/Users/Mafish/Documents/GitHub/MAB_Driver/Libraries/XMCLib/inc\xmc_usic.h **** /**
 475:C:/Users/Mafish/Documents/GitHub/MAB_Driver/Libraries/XMCLib/inc\xmc_usic.h ****  * USIC channel structure.<br> The members of the structure are same as in the device header file, 
 476:C:/Users/Mafish/Documents/GitHub/MAB_Driver/Libraries/XMCLib/inc\xmc_usic.h ****  * except for some registers.
 477:C:/Users/Mafish/Documents/GitHub/MAB_Driver/Libraries/XMCLib/inc\xmc_usic.h ****  * DX0CR, DX1CR, DX2CR, DX3CR, DX4CR and DX5CR are replaced with the array DXCR[6].
 478:C:/Users/Mafish/Documents/GitHub/MAB_Driver/Libraries/XMCLib/inc\xmc_usic.h ****  * TBUF0 to TBUF31 are replaced with TBUF[32].
 479:C:/Users/Mafish/Documents/GitHub/MAB_Driver/Libraries/XMCLib/inc\xmc_usic.h ****  * IN0 to IN31 are replaced with IN[32].
 480:C:/Users/Mafish/Documents/GitHub/MAB_Driver/Libraries/XMCLib/inc\xmc_usic.h ****  */
 481:C:/Users/Mafish/Documents/GitHub/MAB_Driver/Libraries/XMCLib/inc\xmc_usic.h **** typedef struct XMC_USIC_CH
 482:C:/Users/Mafish/Documents/GitHub/MAB_Driver/Libraries/XMCLib/inc\xmc_usic.h **** {
 483:C:/Users/Mafish/Documents/GitHub/MAB_Driver/Libraries/XMCLib/inc\xmc_usic.h ****   __I  uint32_t  RESERVED0;
 484:C:/Users/Mafish/Documents/GitHub/MAB_Driver/Libraries/XMCLib/inc\xmc_usic.h ****   __I  uint32_t  CCFG;			/**< Channel configuration register*/
 485:C:/Users/Mafish/Documents/GitHub/MAB_Driver/Libraries/XMCLib/inc\xmc_usic.h ****   __I  uint32_t  RESERVED1;
 486:C:/Users/Mafish/Documents/GitHub/MAB_Driver/Libraries/XMCLib/inc\xmc_usic.h ****   __IO uint32_t  KSCFG;			/**< Kernel state configuration register*/
 487:C:/Users/Mafish/Documents/GitHub/MAB_Driver/Libraries/XMCLib/inc\xmc_usic.h ****   __IO uint32_t  FDR;			/**< Fractional divider configuration register*/
 488:C:/Users/Mafish/Documents/GitHub/MAB_Driver/Libraries/XMCLib/inc\xmc_usic.h ****   __IO uint32_t  BRG;			/**< Baud rate generator register*/
 489:C:/Users/Mafish/Documents/GitHub/MAB_Driver/Libraries/XMCLib/inc\xmc_usic.h ****   __IO uint32_t  INPR;			/**< Interrupt node pointer register*/
 490:C:/Users/Mafish/Documents/GitHub/MAB_Driver/Libraries/XMCLib/inc\xmc_usic.h ****   __IO uint32_t  DXCR[6];		/**< Input control registers DX0 to DX5.*/
 491:C:/Users/Mafish/Documents/GitHub/MAB_Driver/Libraries/XMCLib/inc\xmc_usic.h ****   __IO uint32_t  SCTR;			/**< Shift control register*/
 492:C:/Users/Mafish/Documents/GitHub/MAB_Driver/Libraries/XMCLib/inc\xmc_usic.h ****   __IO uint32_t  TCSR;
 493:C:/Users/Mafish/Documents/GitHub/MAB_Driver/Libraries/XMCLib/inc\xmc_usic.h **** 
 494:C:/Users/Mafish/Documents/GitHub/MAB_Driver/Libraries/XMCLib/inc\xmc_usic.h ****   union {
 495:C:/Users/Mafish/Documents/GitHub/MAB_Driver/Libraries/XMCLib/inc\xmc_usic.h ****     __IO uint32_t  PCR_IICMode;	/**< I2C protocol configuration register*/
 496:C:/Users/Mafish/Documents/GitHub/MAB_Driver/Libraries/XMCLib/inc\xmc_usic.h ****     __IO uint32_t  PCR_IISMode; /**< I2S protocol configuration register*/
 497:C:/Users/Mafish/Documents/GitHub/MAB_Driver/Libraries/XMCLib/inc\xmc_usic.h ****     __IO uint32_t  PCR_SSCMode;	/**< SPI protocol configuration register*/
 498:C:/Users/Mafish/Documents/GitHub/MAB_Driver/Libraries/XMCLib/inc\xmc_usic.h ****     __IO uint32_t  PCR;			/**< Protocol configuration register*/
 499:C:/Users/Mafish/Documents/GitHub/MAB_Driver/Libraries/XMCLib/inc\xmc_usic.h ****     __IO uint32_t  PCR_ASCMode;	/**< UART protocol configuration register*/
 500:C:/Users/Mafish/Documents/GitHub/MAB_Driver/Libraries/XMCLib/inc\xmc_usic.h ****   };
 501:C:/Users/Mafish/Documents/GitHub/MAB_Driver/Libraries/XMCLib/inc\xmc_usic.h ****   __IO uint32_t  CCR;			/**< Channel control register*/
 502:C:/Users/Mafish/Documents/GitHub/MAB_Driver/Libraries/XMCLib/inc\xmc_usic.h ****   __IO uint32_t  CMTR;			/**< Capture mode timer register*/
 503:C:/Users/Mafish/Documents/GitHub/MAB_Driver/Libraries/XMCLib/inc\xmc_usic.h **** 
 504:C:/Users/Mafish/Documents/GitHub/MAB_Driver/Libraries/XMCLib/inc\xmc_usic.h ****   union {
 505:C:/Users/Mafish/Documents/GitHub/MAB_Driver/Libraries/XMCLib/inc\xmc_usic.h ****     __IO uint32_t  PSR_IICMode;	/**< I2C protocol status register*/
 506:C:/Users/Mafish/Documents/GitHub/MAB_Driver/Libraries/XMCLib/inc\xmc_usic.h ****     __IO uint32_t  PSR_IISMode;	/**< I2S protocol status register*/
 507:C:/Users/Mafish/Documents/GitHub/MAB_Driver/Libraries/XMCLib/inc\xmc_usic.h ****     __IO uint32_t  PSR_SSCMode;	/**< SPI protocol status register*/
 508:C:/Users/Mafish/Documents/GitHub/MAB_Driver/Libraries/XMCLib/inc\xmc_usic.h ****     __IO uint32_t  PSR;			/**< Protocol status register*/
 509:C:/Users/Mafish/Documents/GitHub/MAB_Driver/Libraries/XMCLib/inc\xmc_usic.h ****     __IO uint32_t  PSR_ASCMode;	/**< UART protocol status register*/
 510:C:/Users/Mafish/Documents/GitHub/MAB_Driver/Libraries/XMCLib/inc\xmc_usic.h ****   };
 511:C:/Users/Mafish/Documents/GitHub/MAB_Driver/Libraries/XMCLib/inc\xmc_usic.h ****   __O  uint32_t  PSCR;			/**< Protocol status clear register*/
 512:C:/Users/Mafish/Documents/GitHub/MAB_Driver/Libraries/XMCLib/inc\xmc_usic.h ****   __I  uint32_t  RBUFSR;		/**< Receive buffer status register*/
 513:C:/Users/Mafish/Documents/GitHub/MAB_Driver/Libraries/XMCLib/inc\xmc_usic.h ****   __I  uint32_t  RBUF;			/**< Receive buffer register*/
 514:C:/Users/Mafish/Documents/GitHub/MAB_Driver/Libraries/XMCLib/inc\xmc_usic.h ****   __I  uint32_t  RBUFD;			/**< Debug mode receive buffer register*/
 515:C:/Users/Mafish/Documents/GitHub/MAB_Driver/Libraries/XMCLib/inc\xmc_usic.h ****   __I  uint32_t  RBUF0;			/**< Receive buffer 0*/
 516:C:/Users/Mafish/Documents/GitHub/MAB_Driver/Libraries/XMCLib/inc\xmc_usic.h ****   __I  uint32_t  RBUF1;			/**< Receive buffer 1*/
 517:C:/Users/Mafish/Documents/GitHub/MAB_Driver/Libraries/XMCLib/inc\xmc_usic.h ****   __I  uint32_t  RBUF01SR;		/**< Receive buffer status register*/
 518:C:/Users/Mafish/Documents/GitHub/MAB_Driver/Libraries/XMCLib/inc\xmc_usic.h ****   __O  uint32_t  FMR;			/**< Flag modification register*/
 519:C:/Users/Mafish/Documents/GitHub/MAB_Driver/Libraries/XMCLib/inc\xmc_usic.h ****   __I  uint32_t  RESERVED2[5];
 520:C:/Users/Mafish/Documents/GitHub/MAB_Driver/Libraries/XMCLib/inc\xmc_usic.h ****   __IO uint32_t  TBUF[32];		/**< Tranmsit buffer registers*/
 521:C:/Users/Mafish/Documents/GitHub/MAB_Driver/Libraries/XMCLib/inc\xmc_usic.h ****   __IO uint32_t  BYP;			/**< FIFO bypass register*/
 522:C:/Users/Mafish/Documents/GitHub/MAB_Driver/Libraries/XMCLib/inc\xmc_usic.h ****   __IO uint32_t  BYPCR;			/**< FIFO bypass control register*/
 523:C:/Users/Mafish/Documents/GitHub/MAB_Driver/Libraries/XMCLib/inc\xmc_usic.h ****   __IO uint32_t  TBCTR;			/**< Transmit FIFO control register*/
 524:C:/Users/Mafish/Documents/GitHub/MAB_Driver/Libraries/XMCLib/inc\xmc_usic.h ****   __IO uint32_t  RBCTR;			/**< Receive FIFO control register*/
 525:C:/Users/Mafish/Documents/GitHub/MAB_Driver/Libraries/XMCLib/inc\xmc_usic.h ****   __I  uint32_t  TRBPTR;		/**< Transmit/recive buffer pointer register*/
 526:C:/Users/Mafish/Documents/GitHub/MAB_Driver/Libraries/XMCLib/inc\xmc_usic.h ****   __IO uint32_t  TRBSR;			/**< Transmit/receive buffer status register*/
 527:C:/Users/Mafish/Documents/GitHub/MAB_Driver/Libraries/XMCLib/inc\xmc_usic.h ****   __O  uint32_t  TRBSCR;		/**< Transmit/receive buffer status clear register*/
 528:C:/Users/Mafish/Documents/GitHub/MAB_Driver/Libraries/XMCLib/inc\xmc_usic.h ****   __I  uint32_t  OUTR;			/**< Receive FIFO output register*/
 529:C:/Users/Mafish/Documents/GitHub/MAB_Driver/Libraries/XMCLib/inc\xmc_usic.h ****   __I  uint32_t  OUTDR;			/**< Receive FIFO debug output register*/
 530:C:/Users/Mafish/Documents/GitHub/MAB_Driver/Libraries/XMCLib/inc\xmc_usic.h ****   __I  uint32_t  RESERVED3[23];
 531:C:/Users/Mafish/Documents/GitHub/MAB_Driver/Libraries/XMCLib/inc\xmc_usic.h ****   __O  uint32_t  IN[32];		/**< Transmit FIFO input register*/
 532:C:/Users/Mafish/Documents/GitHub/MAB_Driver/Libraries/XMCLib/inc\xmc_usic.h **** } XMC_USIC_CH_t;
 533:C:/Users/Mafish/Documents/GitHub/MAB_Driver/Libraries/XMCLib/inc\xmc_usic.h **** 
 534:C:/Users/Mafish/Documents/GitHub/MAB_Driver/Libraries/XMCLib/inc\xmc_usic.h **** 
 535:C:/Users/Mafish/Documents/GitHub/MAB_Driver/Libraries/XMCLib/inc\xmc_usic.h **** /*Anonymous structure/union guard end*/
 536:C:/Users/Mafish/Documents/GitHub/MAB_Driver/Libraries/XMCLib/inc\xmc_usic.h **** #if defined(__CC_ARM)
 537:C:/Users/Mafish/Documents/GitHub/MAB_Driver/Libraries/XMCLib/inc\xmc_usic.h ****   #pragma pop
 538:C:/Users/Mafish/Documents/GitHub/MAB_Driver/Libraries/XMCLib/inc\xmc_usic.h **** #elif defined(__TASKING__)
 539:C:/Users/Mafish/Documents/GitHub/MAB_Driver/Libraries/XMCLib/inc\xmc_usic.h ****   #pragma warning restore
 540:C:/Users/Mafish/Documents/GitHub/MAB_Driver/Libraries/XMCLib/inc\xmc_usic.h **** #endif
 541:C:/Users/Mafish/Documents/GitHub/MAB_Driver/Libraries/XMCLib/inc\xmc_usic.h **** 
 542:C:/Users/Mafish/Documents/GitHub/MAB_Driver/Libraries/XMCLib/inc\xmc_usic.h **** /*******************************************************************************
 543:C:/Users/Mafish/Documents/GitHub/MAB_Driver/Libraries/XMCLib/inc\xmc_usic.h ****  * API PROTOTYPES
 544:C:/Users/Mafish/Documents/GitHub/MAB_Driver/Libraries/XMCLib/inc\xmc_usic.h ****  ******************************************************************************/
 545:C:/Users/Mafish/Documents/GitHub/MAB_Driver/Libraries/XMCLib/inc\xmc_usic.h **** 
 546:C:/Users/Mafish/Documents/GitHub/MAB_Driver/Libraries/XMCLib/inc\xmc_usic.h **** #ifdef __cplusplus
 547:C:/Users/Mafish/Documents/GitHub/MAB_Driver/Libraries/XMCLib/inc\xmc_usic.h **** extern "C" {
 548:C:/Users/Mafish/Documents/GitHub/MAB_Driver/Libraries/XMCLib/inc\xmc_usic.h **** #endif
 549:C:/Users/Mafish/Documents/GitHub/MAB_Driver/Libraries/XMCLib/inc\xmc_usic.h **** 
 550:C:/Users/Mafish/Documents/GitHub/MAB_Driver/Libraries/XMCLib/inc\xmc_usic.h **** __STATIC_INLINE bool XMC_USIC_IsModuleValid(const XMC_USIC_t *const module)
 551:C:/Users/Mafish/Documents/GitHub/MAB_Driver/Libraries/XMCLib/inc\xmc_usic.h **** {
 552:C:/Users/Mafish/Documents/GitHub/MAB_Driver/Libraries/XMCLib/inc\xmc_usic.h ****   bool tmp;
 553:C:/Users/Mafish/Documents/GitHub/MAB_Driver/Libraries/XMCLib/inc\xmc_usic.h **** 
 554:C:/Users/Mafish/Documents/GitHub/MAB_Driver/Libraries/XMCLib/inc\xmc_usic.h ****   tmp = (module == XMC_USIC0);
 555:C:/Users/Mafish/Documents/GitHub/MAB_Driver/Libraries/XMCLib/inc\xmc_usic.h **** #if defined(XMC_USIC1)  
 556:C:/Users/Mafish/Documents/GitHub/MAB_Driver/Libraries/XMCLib/inc\xmc_usic.h ****   tmp = tmp || (module == XMC_USIC1);
 557:C:/Users/Mafish/Documents/GitHub/MAB_Driver/Libraries/XMCLib/inc\xmc_usic.h **** #endif
 558:C:/Users/Mafish/Documents/GitHub/MAB_Driver/Libraries/XMCLib/inc\xmc_usic.h **** #if defined(XMC_USIC2)  
 559:C:/Users/Mafish/Documents/GitHub/MAB_Driver/Libraries/XMCLib/inc\xmc_usic.h ****   tmp = tmp || (module == XMC_USIC2);
 560:C:/Users/Mafish/Documents/GitHub/MAB_Driver/Libraries/XMCLib/inc\xmc_usic.h **** #endif
 561:C:/Users/Mafish/Documents/GitHub/MAB_Driver/Libraries/XMCLib/inc\xmc_usic.h **** 
 562:C:/Users/Mafish/Documents/GitHub/MAB_Driver/Libraries/XMCLib/inc\xmc_usic.h ****   return tmp;
 563:C:/Users/Mafish/Documents/GitHub/MAB_Driver/Libraries/XMCLib/inc\xmc_usic.h **** }
 564:C:/Users/Mafish/Documents/GitHub/MAB_Driver/Libraries/XMCLib/inc\xmc_usic.h **** 
 565:C:/Users/Mafish/Documents/GitHub/MAB_Driver/Libraries/XMCLib/inc\xmc_usic.h **** __STATIC_INLINE bool XMC_USIC_IsChannelValid(const XMC_USIC_CH_t *const channel)
 566:C:/Users/Mafish/Documents/GitHub/MAB_Driver/Libraries/XMCLib/inc\xmc_usic.h **** {
 567:C:/Users/Mafish/Documents/GitHub/MAB_Driver/Libraries/XMCLib/inc\xmc_usic.h ****   bool tmp;
 568:C:/Users/Mafish/Documents/GitHub/MAB_Driver/Libraries/XMCLib/inc\xmc_usic.h **** 
 569:C:/Users/Mafish/Documents/GitHub/MAB_Driver/Libraries/XMCLib/inc\xmc_usic.h ****   tmp = ((channel == XMC_USIC0_CH0) || (channel == XMC_USIC0_CH1));
 570:C:/Users/Mafish/Documents/GitHub/MAB_Driver/Libraries/XMCLib/inc\xmc_usic.h **** #if defined(XMC_USIC1)  
 571:C:/Users/Mafish/Documents/GitHub/MAB_Driver/Libraries/XMCLib/inc\xmc_usic.h ****   tmp = tmp || ((channel == XMC_USIC1_CH0) || (channel == XMC_USIC1_CH1));
 572:C:/Users/Mafish/Documents/GitHub/MAB_Driver/Libraries/XMCLib/inc\xmc_usic.h **** #endif
 573:C:/Users/Mafish/Documents/GitHub/MAB_Driver/Libraries/XMCLib/inc\xmc_usic.h **** #if defined(XMC_USIC2)  
 574:C:/Users/Mafish/Documents/GitHub/MAB_Driver/Libraries/XMCLib/inc\xmc_usic.h ****   tmp = tmp || ((channel == XMC_USIC2_CH0) || (channel == XMC_USIC2_CH1));
 575:C:/Users/Mafish/Documents/GitHub/MAB_Driver/Libraries/XMCLib/inc\xmc_usic.h **** #endif
 576:C:/Users/Mafish/Documents/GitHub/MAB_Driver/Libraries/XMCLib/inc\xmc_usic.h **** 
 577:C:/Users/Mafish/Documents/GitHub/MAB_Driver/Libraries/XMCLib/inc\xmc_usic.h ****   return tmp;
 578:C:/Users/Mafish/Documents/GitHub/MAB_Driver/Libraries/XMCLib/inc\xmc_usic.h **** }
 579:C:/Users/Mafish/Documents/GitHub/MAB_Driver/Libraries/XMCLib/inc\xmc_usic.h **** 
 580:C:/Users/Mafish/Documents/GitHub/MAB_Driver/Libraries/XMCLib/inc\xmc_usic.h **** /* Common APIs */
 581:C:/Users/Mafish/Documents/GitHub/MAB_Driver/Libraries/XMCLib/inc\xmc_usic.h **** 
 582:C:/Users/Mafish/Documents/GitHub/MAB_Driver/Libraries/XMCLib/inc\xmc_usic.h **** /**
 583:C:/Users/Mafish/Documents/GitHub/MAB_Driver/Libraries/XMCLib/inc\xmc_usic.h ****  * @param  usic Pointer to USIC module handler of type @ref XMC_USIC_t.\n
 584:C:/Users/Mafish/Documents/GitHub/MAB_Driver/Libraries/XMCLib/inc\xmc_usic.h ****  * 				\b Range: @ref XMC_USIC0 to @ref XMC_USIC2 based on device support.
 585:C:/Users/Mafish/Documents/GitHub/MAB_Driver/Libraries/XMCLib/inc\xmc_usic.h ****  * @return None
 586:C:/Users/Mafish/Documents/GitHub/MAB_Driver/Libraries/XMCLib/inc\xmc_usic.h ****  * 
 587:C:/Users/Mafish/Documents/GitHub/MAB_Driver/Libraries/XMCLib/inc\xmc_usic.h ****  * \par<b>Description</b><br>
 588:C:/Users/Mafish/Documents/GitHub/MAB_Driver/Libraries/XMCLib/inc\xmc_usic.h ****  * Enables the USIC module.\n\n
 589:C:/Users/Mafish/Documents/GitHub/MAB_Driver/Libraries/XMCLib/inc\xmc_usic.h ****  * Enables the clock for the USIC module by following the
 590:C:/Users/Mafish/Documents/GitHub/MAB_Driver/Libraries/XMCLib/inc\xmc_usic.h ****  * clock enabling sequence for the selected device.
 591:C:/Users/Mafish/Documents/GitHub/MAB_Driver/Libraries/XMCLib/inc\xmc_usic.h ****  *
 592:C:/Users/Mafish/Documents/GitHub/MAB_Driver/Libraries/XMCLib/inc\xmc_usic.h ****  * \par<b>Related APIs:</b><BR>
 593:C:/Users/Mafish/Documents/GitHub/MAB_Driver/Libraries/XMCLib/inc\xmc_usic.h ****  * XMC_USIC_CH_Enable(), XMC_USIC_Disable() \n\n\n
 594:C:/Users/Mafish/Documents/GitHub/MAB_Driver/Libraries/XMCLib/inc\xmc_usic.h ****  */
 595:C:/Users/Mafish/Documents/GitHub/MAB_Driver/Libraries/XMCLib/inc\xmc_usic.h **** void XMC_USIC_Enable(XMC_USIC_t *const usic);
 596:C:/Users/Mafish/Documents/GitHub/MAB_Driver/Libraries/XMCLib/inc\xmc_usic.h **** /**
 597:C:/Users/Mafish/Documents/GitHub/MAB_Driver/Libraries/XMCLib/inc\xmc_usic.h ****  * @param  usic Pointer to USIC module handler of type @ref XMC_USIC_t.\n
 598:C:/Users/Mafish/Documents/GitHub/MAB_Driver/Libraries/XMCLib/inc\xmc_usic.h ****  * 				\b Range: @ref XMC_USIC0 to @ref XMC_USIC2 based on device support.
 599:C:/Users/Mafish/Documents/GitHub/MAB_Driver/Libraries/XMCLib/inc\xmc_usic.h ****  * @return None
 600:C:/Users/Mafish/Documents/GitHub/MAB_Driver/Libraries/XMCLib/inc\xmc_usic.h ****  *
 601:C:/Users/Mafish/Documents/GitHub/MAB_Driver/Libraries/XMCLib/inc\xmc_usic.h ****  * \par<b>Description</b><br>
 602:C:/Users/Mafish/Documents/GitHub/MAB_Driver/Libraries/XMCLib/inc\xmc_usic.h ****  * Disables the USIC module.\n\n
 603:C:/Users/Mafish/Documents/GitHub/MAB_Driver/Libraries/XMCLib/inc\xmc_usic.h ****  * Disables the clock for the USIC module by following the clock
 604:C:/Users/Mafish/Documents/GitHub/MAB_Driver/Libraries/XMCLib/inc\xmc_usic.h ****  * disabling sequence for the selected device.
 605:C:/Users/Mafish/Documents/GitHub/MAB_Driver/Libraries/XMCLib/inc\xmc_usic.h ****  *
 606:C:/Users/Mafish/Documents/GitHub/MAB_Driver/Libraries/XMCLib/inc\xmc_usic.h ****  * \par<b>Related APIs:</b><BR>
 607:C:/Users/Mafish/Documents/GitHub/MAB_Driver/Libraries/XMCLib/inc\xmc_usic.h ****  * XMC_USIC_CH_Disable(), XMC_USIC_Enable() \n\n\n
 608:C:/Users/Mafish/Documents/GitHub/MAB_Driver/Libraries/XMCLib/inc\xmc_usic.h ****  */
 609:C:/Users/Mafish/Documents/GitHub/MAB_Driver/Libraries/XMCLib/inc\xmc_usic.h **** void XMC_USIC_Disable(XMC_USIC_t *const usic);
 610:C:/Users/Mafish/Documents/GitHub/MAB_Driver/Libraries/XMCLib/inc\xmc_usic.h **** /**
 611:C:/Users/Mafish/Documents/GitHub/MAB_Driver/Libraries/XMCLib/inc\xmc_usic.h ****  * @param  channel Pointer to USIC channel handler of type @ref XMC_USIC_CH_t \n
 612:C:/Users/Mafish/Documents/GitHub/MAB_Driver/Libraries/XMCLib/inc\xmc_usic.h ****  * 				   \b Range: @ref XMC_USIC0_CH0, @ref XMC_USIC0_CH1 to @ref XMC_USIC2_CH1 based on device su
 613:C:/Users/Mafish/Documents/GitHub/MAB_Driver/Libraries/XMCLib/inc\xmc_usic.h ****  * @return None
 614:C:/Users/Mafish/Documents/GitHub/MAB_Driver/Libraries/XMCLib/inc\xmc_usic.h ****  *
 615:C:/Users/Mafish/Documents/GitHub/MAB_Driver/Libraries/XMCLib/inc\xmc_usic.h ****  * \par<b>Description</b><br>
 616:C:/Users/Mafish/Documents/GitHub/MAB_Driver/Libraries/XMCLib/inc\xmc_usic.h ****  * Enables the USIC channel. \n\n
 617:C:/Users/Mafish/Documents/GitHub/MAB_Driver/Libraries/XMCLib/inc\xmc_usic.h ****  * USIC channel is enabled by setting the module enable bit in KSCFG register bitfield MODEN.
 618:C:/Users/Mafish/Documents/GitHub/MAB_Driver/Libraries/XMCLib/inc\xmc_usic.h ****  * On enabling, the channel is set to idle mode.
 619:C:/Users/Mafish/Documents/GitHub/MAB_Driver/Libraries/XMCLib/inc\xmc_usic.h ****  *
 620:C:/Users/Mafish/Documents/GitHub/MAB_Driver/Libraries/XMCLib/inc\xmc_usic.h ****  * \par<b>Related APIs:</b><BR>
 621:C:/Users/Mafish/Documents/GitHub/MAB_Driver/Libraries/XMCLib/inc\xmc_usic.h ****  * XMC_USIC_CH_Disable(), XMC_USIC_Enable() \n\n\n
 622:C:/Users/Mafish/Documents/GitHub/MAB_Driver/Libraries/XMCLib/inc\xmc_usic.h ****  */
 623:C:/Users/Mafish/Documents/GitHub/MAB_Driver/Libraries/XMCLib/inc\xmc_usic.h **** void XMC_USIC_CH_Enable(XMC_USIC_CH_t *const channel);
 624:C:/Users/Mafish/Documents/GitHub/MAB_Driver/Libraries/XMCLib/inc\xmc_usic.h **** /**
 625:C:/Users/Mafish/Documents/GitHub/MAB_Driver/Libraries/XMCLib/inc\xmc_usic.h ****  * @param  channel Pointer to USIC channel handler of type @ref XMC_USIC_CH_t \n
 626:C:/Users/Mafish/Documents/GitHub/MAB_Driver/Libraries/XMCLib/inc\xmc_usic.h ****  * 				   \b Range: @ref XMC_USIC0_CH0, @ref XMC_USIC0_CH1 to @ref XMC_USIC2_CH1 based on device su
 627:C:/Users/Mafish/Documents/GitHub/MAB_Driver/Libraries/XMCLib/inc\xmc_usic.h ****  * @return None
 628:C:/Users/Mafish/Documents/GitHub/MAB_Driver/Libraries/XMCLib/inc\xmc_usic.h ****  *
 629:C:/Users/Mafish/Documents/GitHub/MAB_Driver/Libraries/XMCLib/inc\xmc_usic.h ****  * \par<b>Description</b><br>
 630:C:/Users/Mafish/Documents/GitHub/MAB_Driver/Libraries/XMCLib/inc\xmc_usic.h ****  * Disables the USIC channel.\n\n
 631:C:/Users/Mafish/Documents/GitHub/MAB_Driver/Libraries/XMCLib/inc\xmc_usic.h ****  * USIC channel is disabled by setting the module enable bit(MDEN) to 0 in the register KSCFG.
 632:C:/Users/Mafish/Documents/GitHub/MAB_Driver/Libraries/XMCLib/inc\xmc_usic.h ****  *
 633:C:/Users/Mafish/Documents/GitHub/MAB_Driver/Libraries/XMCLib/inc\xmc_usic.h ****  * \par<b>Related APIs:</b><BR>
 634:C:/Users/Mafish/Documents/GitHub/MAB_Driver/Libraries/XMCLib/inc\xmc_usic.h ****  * XMC_USIC_CH_Enable(), XMC_USIC_Disable() \n\n\n
 635:C:/Users/Mafish/Documents/GitHub/MAB_Driver/Libraries/XMCLib/inc\xmc_usic.h ****  */
 636:C:/Users/Mafish/Documents/GitHub/MAB_Driver/Libraries/XMCLib/inc\xmc_usic.h **** void XMC_USIC_CH_Disable(XMC_USIC_CH_t *const channel);
 637:C:/Users/Mafish/Documents/GitHub/MAB_Driver/Libraries/XMCLib/inc\xmc_usic.h **** 
 638:C:/Users/Mafish/Documents/GitHub/MAB_Driver/Libraries/XMCLib/inc\xmc_usic.h **** /**
 639:C:/Users/Mafish/Documents/GitHub/MAB_Driver/Libraries/XMCLib/inc\xmc_usic.h ****  * @param  channel Pointer to USIC channel handler of type @ref XMC_USIC_CH_t \n
 640:C:/Users/Mafish/Documents/GitHub/MAB_Driver/Libraries/XMCLib/inc\xmc_usic.h ****  * 				   \b Range: @ref XMC_USIC0_CH0, @ref XMC_USIC0_CH1 to @ref XMC_USIC2_CH1 based on device su
 641:C:/Users/Mafish/Documents/GitHub/MAB_Driver/Libraries/XMCLib/inc\xmc_usic.h ****  * @param  rate Desired baudrate. \b Range: minimum value = 100, maximum value depends on the perip
 642:C:/Users/Mafish/Documents/GitHub/MAB_Driver/Libraries/XMCLib/inc\xmc_usic.h ****  * 				and \a oversampling. Maximum baudrate can be derived using the formula: (fperiph * 1023)/(10
 643:C:/Users/Mafish/Documents/GitHub/MAB_Driver/Libraries/XMCLib/inc\xmc_usic.h ****  * @param  oversampling Required oversampling. The value indicates the number of time quanta for on
 644:C:/Users/Mafish/Documents/GitHub/MAB_Driver/Libraries/XMCLib/inc\xmc_usic.h ****  * 						This can be related to the number of samples for each logic state of the data signal. \n
 645:C:/Users/Mafish/Documents/GitHub/MAB_Driver/Libraries/XMCLib/inc\xmc_usic.h ****  * 						\b Range: 1 to 32. Value should be chosen based on the protocol used.
 646:C:/Users/Mafish/Documents/GitHub/MAB_Driver/Libraries/XMCLib/inc\xmc_usic.h ****  * @return Status indicating the baudrate configuration.\n
 647:C:/Users/Mafish/Documents/GitHub/MAB_Driver/Libraries/XMCLib/inc\xmc_usic.h ****  * 			\b Range: @ref XMC_USIC_CH_STATUS_OK if baudrate is successfully configured,
 648:C:/Users/Mafish/Documents/GitHub/MAB_Driver/Libraries/XMCLib/inc\xmc_usic.h ****  * 					  @ref XMC_USIC_CH_STATUS_ERROR if desired baudrate or oversampling is invalid.
 649:C:/Users/Mafish/Documents/GitHub/MAB_Driver/Libraries/XMCLib/inc\xmc_usic.h ****  *
 650:C:/Users/Mafish/Documents/GitHub/MAB_Driver/Libraries/XMCLib/inc\xmc_usic.h ****  * \par<b>Description</b><br>
 651:C:/Users/Mafish/Documents/GitHub/MAB_Driver/Libraries/XMCLib/inc\xmc_usic.h ****  * Configures the baudrate of the USIC channel. \n\n
 652:C:/Users/Mafish/Documents/GitHub/MAB_Driver/Libraries/XMCLib/inc\xmc_usic.h ****  * Baudrate is configured by considering the peripheral frequency and the desired baudrate.
 653:C:/Users/Mafish/Documents/GitHub/MAB_Driver/Libraries/XMCLib/inc\xmc_usic.h ****  * Optimum values of FDR->STEP and BRG->PDIV are calulated and used for generating the desired
 654:C:/Users/Mafish/Documents/GitHub/MAB_Driver/Libraries/XMCLib/inc\xmc_usic.h ****  * baudrate.
 655:C:/Users/Mafish/Documents/GitHub/MAB_Driver/Libraries/XMCLib/inc\xmc_usic.h ****  *
 656:C:/Users/Mafish/Documents/GitHub/MAB_Driver/Libraries/XMCLib/inc\xmc_usic.h ****  * \par<b>Related APIs:</b><BR>
 657:C:/Users/Mafish/Documents/GitHub/MAB_Driver/Libraries/XMCLib/inc\xmc_usic.h ****  * XMC_USIC_CH_SetStartTransmisionMode(), XMC_USIC_CH_SetInputSource() \n\n\n
 658:C:/Users/Mafish/Documents/GitHub/MAB_Driver/Libraries/XMCLib/inc\xmc_usic.h ****  */
 659:C:/Users/Mafish/Documents/GitHub/MAB_Driver/Libraries/XMCLib/inc\xmc_usic.h **** XMC_USIC_CH_STATUS_t XMC_USIC_CH_SetBaudrate(XMC_USIC_CH_t *const channel, uint32_t rate, uint32_t 
 660:C:/Users/Mafish/Documents/GitHub/MAB_Driver/Libraries/XMCLib/inc\xmc_usic.h **** 
 661:C:/Users/Mafish/Documents/GitHub/MAB_Driver/Libraries/XMCLib/inc\xmc_usic.h **** /**
 662:C:/Users/Mafish/Documents/GitHub/MAB_Driver/Libraries/XMCLib/inc\xmc_usic.h ****  * @param  channel Pointer to USIC channel handler of type @ref XMC_USIC_CH_t \n
 663:C:/Users/Mafish/Documents/GitHub/MAB_Driver/Libraries/XMCLib/inc\xmc_usic.h ****  * 				   \b Range: @ref XMC_USIC0_CH0, @ref XMC_USIC0_CH1 to @ref XMC_USIC2_CH1 based on device su
 664:C:/Users/Mafish/Documents/GitHub/MAB_Driver/Libraries/XMCLib/inc\xmc_usic.h ****  * @param  pdiv Desired divider for the external frequency input. \b Range: minimum value = 1, maxi
 665:C:/Users/Mafish/Documents/GitHub/MAB_Driver/Libraries/XMCLib/inc\xmc_usic.h ****  * @param  oversampling Required oversampling. The value indicates the number of time quanta for on
 666:C:/Users/Mafish/Documents/GitHub/MAB_Driver/Libraries/XMCLib/inc\xmc_usic.h ****  * 						This can be related to the number of samples for each logic state of the data signal. \n
 667:C:/Users/Mafish/Documents/GitHub/MAB_Driver/Libraries/XMCLib/inc\xmc_usic.h ****  * 						\b Range: 1 to 32. Value should be chosen based on the protocol used.
 668:C:/Users/Mafish/Documents/GitHub/MAB_Driver/Libraries/XMCLib/inc\xmc_usic.h ****  * @param  combination_mode Selects which edge of the synchronized(and optionally filtered) signal 
 669:C:/Users/Mafish/Documents/GitHub/MAB_Driver/Libraries/XMCLib/inc\xmc_usic.h ****  *                          output DXnT of the input stage.
 670:C:/Users/Mafish/Documents/GitHub/MAB_Driver/Libraries/XMCLib/inc\xmc_usic.h ****  *
 671:C:/Users/Mafish/Documents/GitHub/MAB_Driver/Libraries/XMCLib/inc\xmc_usic.h ****  * @return None
 672:C:/Users/Mafish/Documents/GitHub/MAB_Driver/Libraries/XMCLib/inc\xmc_usic.h ****  *
 673:C:/Users/Mafish/Documents/GitHub/MAB_Driver/Libraries/XMCLib/inc\xmc_usic.h ****  * \par<b>Description</b><br>
 674:C:/Users/Mafish/Documents/GitHub/MAB_Driver/Libraries/XMCLib/inc\xmc_usic.h ****  * Enables the external frequency input for the Baudrate Generator and configures the divider, over
 675:C:/Users/Mafish/Documents/GitHub/MAB_Driver/Libraries/XMCLib/inc\xmc_usic.h ****  * the combination mode of the USIC channel. \n\n
 676:C:/Users/Mafish/Documents/GitHub/MAB_Driver/Libraries/XMCLib/inc\xmc_usic.h ****  *
 677:C:/Users/Mafish/Documents/GitHub/MAB_Driver/Libraries/XMCLib/inc\xmc_usic.h ****  * \par<b>Related APIs:</b><BR>
 678:C:/Users/Mafish/Documents/GitHub/MAB_Driver/Libraries/XMCLib/inc\xmc_usic.h ****  * XMC_USIC_CH_SetBRGInputClockSource(), XMC_USIC_CH_SetInputTriggerCombinationMode() \n\n\n
 679:C:/Users/Mafish/Documents/GitHub/MAB_Driver/Libraries/XMCLib/inc\xmc_usic.h ****  */
 680:C:/Users/Mafish/Documents/GitHub/MAB_Driver/Libraries/XMCLib/inc\xmc_usic.h **** void XMC_USIC_CH_ConfigExternalInputSignalToBRG(XMC_USIC_CH_t *const channel,
 681:C:/Users/Mafish/Documents/GitHub/MAB_Driver/Libraries/XMCLib/inc\xmc_usic.h **** 		                                         const uint16_t pdiv,
 682:C:/Users/Mafish/Documents/GitHub/MAB_Driver/Libraries/XMCLib/inc\xmc_usic.h **** 												 const uint32_t oversampling,
 683:C:/Users/Mafish/Documents/GitHub/MAB_Driver/Libraries/XMCLib/inc\xmc_usic.h **** 												 const XMC_USIC_CH_INPUT_COMBINATION_MODE_t combination_mode);
 684:C:/Users/Mafish/Documents/GitHub/MAB_Driver/Libraries/XMCLib/inc\xmc_usic.h **** 
 685:C:/Users/Mafish/Documents/GitHub/MAB_Driver/Libraries/XMCLib/inc\xmc_usic.h **** /**
 686:C:/Users/Mafish/Documents/GitHub/MAB_Driver/Libraries/XMCLib/inc\xmc_usic.h ****  * @param  channel Pointer to USIC channel handler of type @ref XMC_USIC_CH_t \n
 687:C:/Users/Mafish/Documents/GitHub/MAB_Driver/Libraries/XMCLib/inc\xmc_usic.h ****  * 				   \b Range: @ref XMC_USIC0_CH0, @ref XMC_USIC0_CH1 to @ref XMC_USIC2_CH1 based on device su
 688:C:/Users/Mafish/Documents/GitHub/MAB_Driver/Libraries/XMCLib/inc\xmc_usic.h ****  * @param  input USIC channel input stage of type @ref XMC_USIC_CH_INPUT_t. \n
 689:C:/Users/Mafish/Documents/GitHub/MAB_Driver/Libraries/XMCLib/inc\xmc_usic.h ****  * 				 \b Range: @ref XMC_USIC_CH_INPUT_DX0 to @ref XMC_USIC_CH_INPUT_DX5
 690:C:/Users/Mafish/Documents/GitHub/MAB_Driver/Libraries/XMCLib/inc\xmc_usic.h ****  * @param  source Input source select for the input stage. The table below maps the enum value with
 691:C:/Users/Mafish/Documents/GitHub/MAB_Driver/Libraries/XMCLib/inc\xmc_usic.h ****  * <table><tr><td>0</td><td>DXnA</td></tr><tr><td>1</td><td>DXnB</td></tr><tr><td>2</td><td>DXnC</t
 692:C:/Users/Mafish/Documents/GitHub/MAB_Driver/Libraries/XMCLib/inc\xmc_usic.h ****  * <tr><td>4</td><td>DXnE</td></tr><tr><td>5</td><td>DXnF</td></tr><tr><td>6</td><td>DXnG</td></tr>
 693:C:/Users/Mafish/Documents/GitHub/MAB_Driver/Libraries/XMCLib/inc\xmc_usic.h ****  * </tr></table>
 694:C:/Users/Mafish/Documents/GitHub/MAB_Driver/Libraries/XMCLib/inc\xmc_usic.h ****  * @return None
 695:C:/Users/Mafish/Documents/GitHub/MAB_Driver/Libraries/XMCLib/inc\xmc_usic.h ****  *
 696:C:/Users/Mafish/Documents/GitHub/MAB_Driver/Libraries/XMCLib/inc\xmc_usic.h ****  * \par<b>Description</b><br>
 697:C:/Users/Mafish/Documents/GitHub/MAB_Driver/Libraries/XMCLib/inc\xmc_usic.h ****  * Selects the data source for USIC input stage.\n\n
 698:C:/Users/Mafish/Documents/GitHub/MAB_Driver/Libraries/XMCLib/inc\xmc_usic.h ****  * Selects the input data signal source among DXnA, DXnB.. DXnG for the input stage. The API can be
 699:C:/Users/Mafish/Documents/GitHub/MAB_Driver/Libraries/XMCLib/inc\xmc_usic.h ****  * like DX0CR, DX1CR etc. 
 700:C:/Users/Mafish/Documents/GitHub/MAB_Driver/Libraries/XMCLib/inc\xmc_usic.h ****  *  
 701:C:/Users/Mafish/Documents/GitHub/MAB_Driver/Libraries/XMCLib/inc\xmc_usic.h ****  * \par<b>Related APIs:</b><BR>
 702:C:/Users/Mafish/Documents/GitHub/MAB_Driver/Libraries/XMCLib/inc\xmc_usic.h ****  * XMC_USIC_CH_EnableInputInversion(), XMC_USIC_CH_EnableInputDigitalFilter(), XMC_USIC_CH_EnableIn
 703:C:/Users/Mafish/Documents/GitHub/MAB_Driver/Libraries/XMCLib/inc\xmc_usic.h ****  * XMC_USIC_CH_SetInputSamplingFreq()\n\n\n
 704:C:/Users/Mafish/Documents/GitHub/MAB_Driver/Libraries/XMCLib/inc\xmc_usic.h ****  */
 705:C:/Users/Mafish/Documents/GitHub/MAB_Driver/Libraries/XMCLib/inc\xmc_usic.h **** __STATIC_INLINE void XMC_USIC_CH_SetInputSource(XMC_USIC_CH_t *const channel, const XMC_USIC_CH_INP
 706:C:/Users/Mafish/Documents/GitHub/MAB_Driver/Libraries/XMCLib/inc\xmc_usic.h **** {
 707:C:/Users/Mafish/Documents/GitHub/MAB_Driver/Libraries/XMCLib/inc\xmc_usic.h ****   channel->DXCR[input] = (uint32_t)((channel->DXCR[input] & (uint32_t)(~USIC_CH_DXCR_DSEL_Msk)) |
 708:C:/Users/Mafish/Documents/GitHub/MAB_Driver/Libraries/XMCLib/inc\xmc_usic.h ****                          ((uint32_t)source << USIC_CH_DXCR_DSEL_Pos));
 709:C:/Users/Mafish/Documents/GitHub/MAB_Driver/Libraries/XMCLib/inc\xmc_usic.h **** }
 710:C:/Users/Mafish/Documents/GitHub/MAB_Driver/Libraries/XMCLib/inc\xmc_usic.h **** /**
 711:C:/Users/Mafish/Documents/GitHub/MAB_Driver/Libraries/XMCLib/inc\xmc_usic.h ****  * @param  channel Pointer to USIC channel handler of type @ref XMC_USIC_CH_t \n
 712:C:/Users/Mafish/Documents/GitHub/MAB_Driver/Libraries/XMCLib/inc\xmc_usic.h ****  * 				   \b Range: @ref XMC_USIC0_CH0, @ref XMC_USIC0_CH1 to @ref XMC_USIC2_CH1 based on device su
 713:C:/Users/Mafish/Documents/GitHub/MAB_Driver/Libraries/XMCLib/inc\xmc_usic.h ****  * @param  input USIC channel input stage of type @ref XMC_USIC_CH_INPUT_t. \n
 714:C:/Users/Mafish/Documents/GitHub/MAB_Driver/Libraries/XMCLib/inc\xmc_usic.h ****  * 				 \b Range: @ref XMC_USIC_CH_INPUT_DX0 to @ref XMC_USIC_CH_INPUT_DX5
 715:C:/Users/Mafish/Documents/GitHub/MAB_Driver/Libraries/XMCLib/inc\xmc_usic.h ****  * @return None
 716:C:/Users/Mafish/Documents/GitHub/MAB_Driver/Libraries/XMCLib/inc\xmc_usic.h ****  *
 717:C:/Users/Mafish/Documents/GitHub/MAB_Driver/Libraries/XMCLib/inc\xmc_usic.h ****  * \par<b>Description</b><br>
 718:C:/Users/Mafish/Documents/GitHub/MAB_Driver/Libraries/XMCLib/inc\xmc_usic.h ****  * The input of the data shift unit is controlled by the
 719:C:/Users/Mafish/Documents/GitHub/MAB_Driver/Libraries/XMCLib/inc\xmc_usic.h ****  * protocol pre-processor. \n\n
 720:C:/Users/Mafish/Documents/GitHub/MAB_Driver/Libraries/XMCLib/inc\xmc_usic.h ****  *
 721:C:/Users/Mafish/Documents/GitHub/MAB_Driver/Libraries/XMCLib/inc\xmc_usic.h ****  * \par<b>Related APIs:</b><BR>
 722:C:/Users/Mafish/Documents/GitHub/MAB_Driver/Libraries/XMCLib/inc\xmc_usic.h ****  * XMC_USIC_CH_ConnectInputDataShiftToDataInput()\n\n\n
 723:C:/Users/Mafish/Documents/GitHub/MAB_Driver/Libraries/XMCLib/inc\xmc_usic.h ****  */
 724:C:/Users/Mafish/Documents/GitHub/MAB_Driver/Libraries/XMCLib/inc\xmc_usic.h **** __STATIC_INLINE void XMC_USIC_CH_ConnectInputDataShiftToPPP(XMC_USIC_CH_t *const channel, const XMC
 725:C:/Users/Mafish/Documents/GitHub/MAB_Driver/Libraries/XMCLib/inc\xmc_usic.h **** {
 726:C:/Users/Mafish/Documents/GitHub/MAB_Driver/Libraries/XMCLib/inc\xmc_usic.h ****   channel->DXCR[input] &=(uint32_t)~USIC_CH_DXCR_INSW_Msk;
 727:C:/Users/Mafish/Documents/GitHub/MAB_Driver/Libraries/XMCLib/inc\xmc_usic.h **** }
 728:C:/Users/Mafish/Documents/GitHub/MAB_Driver/Libraries/XMCLib/inc\xmc_usic.h **** 
 729:C:/Users/Mafish/Documents/GitHub/MAB_Driver/Libraries/XMCLib/inc\xmc_usic.h **** /**
 730:C:/Users/Mafish/Documents/GitHub/MAB_Driver/Libraries/XMCLib/inc\xmc_usic.h ****  * @param  channel Pointer to USIC channel handler of type @ref XMC_USIC_CH_t \n
 731:C:/Users/Mafish/Documents/GitHub/MAB_Driver/Libraries/XMCLib/inc\xmc_usic.h ****  * 				   \b Range: @ref XMC_USIC0_CH0, @ref XMC_USIC0_CH1 to @ref XMC_USIC2_CH1 based on device su
 732:C:/Users/Mafish/Documents/GitHub/MAB_Driver/Libraries/XMCLib/inc\xmc_usic.h ****  * @param  input USIC channel input stage of type @ref XMC_USIC_CH_INPUT_t. \n
 733:C:/Users/Mafish/Documents/GitHub/MAB_Driver/Libraries/XMCLib/inc\xmc_usic.h ****  * 				 \b Range: @ref XMC_USIC_CH_INPUT_DX0 to @ref XMC_USIC_CH_INPUT_DX5
 734:C:/Users/Mafish/Documents/GitHub/MAB_Driver/Libraries/XMCLib/inc\xmc_usic.h ****  * @return None
 735:C:/Users/Mafish/Documents/GitHub/MAB_Driver/Libraries/XMCLib/inc\xmc_usic.h ****  *
 736:C:/Users/Mafish/Documents/GitHub/MAB_Driver/Libraries/XMCLib/inc\xmc_usic.h ****  * \par<b>Description</b><br>
 737:C:/Users/Mafish/Documents/GitHub/MAB_Driver/Libraries/XMCLib/inc\xmc_usic.h ****  * The input of the data shift unit is connected to
 738:C:/Users/Mafish/Documents/GitHub/MAB_Driver/Libraries/XMCLib/inc\xmc_usic.h ****  * the selected data input line. \n\n
 739:C:/Users/Mafish/Documents/GitHub/MAB_Driver/Libraries/XMCLib/inc\xmc_usic.h ****  *
 740:C:/Users/Mafish/Documents/GitHub/MAB_Driver/Libraries/XMCLib/inc\xmc_usic.h ****  * This setting is used
 741:C:/Users/Mafish/Documents/GitHub/MAB_Driver/Libraries/XMCLib/inc\xmc_usic.h ****  * if the signals are directly derived from an input
 742:C:/Users/Mafish/Documents/GitHub/MAB_Driver/Libraries/XMCLib/inc\xmc_usic.h ****  * pin without treatment by the protocol preprocessor.
 743:C:/Users/Mafish/Documents/GitHub/MAB_Driver/Libraries/XMCLib/inc\xmc_usic.h ****  * \par<b>Related APIs:</b><BR>
 744:C:/Users/Mafish/Documents/GitHub/MAB_Driver/Libraries/XMCLib/inc\xmc_usic.h ****  * XMC_USIC_CH_ConnectInputDataShiftToPPP()\n\n\n
 745:C:/Users/Mafish/Documents/GitHub/MAB_Driver/Libraries/XMCLib/inc\xmc_usic.h ****  */
 746:C:/Users/Mafish/Documents/GitHub/MAB_Driver/Libraries/XMCLib/inc\xmc_usic.h **** __STATIC_INLINE void XMC_USIC_CH_ConnectInputDataShiftToDataInput(XMC_USIC_CH_t *const channel, con
 747:C:/Users/Mafish/Documents/GitHub/MAB_Driver/Libraries/XMCLib/inc\xmc_usic.h **** {
 748:C:/Users/Mafish/Documents/GitHub/MAB_Driver/Libraries/XMCLib/inc\xmc_usic.h ****   channel->DXCR[input] |= USIC_CH_DXCR_INSW_Msk;
 749:C:/Users/Mafish/Documents/GitHub/MAB_Driver/Libraries/XMCLib/inc\xmc_usic.h **** }
 750:C:/Users/Mafish/Documents/GitHub/MAB_Driver/Libraries/XMCLib/inc\xmc_usic.h **** 
 751:C:/Users/Mafish/Documents/GitHub/MAB_Driver/Libraries/XMCLib/inc\xmc_usic.h **** /**
 752:C:/Users/Mafish/Documents/GitHub/MAB_Driver/Libraries/XMCLib/inc\xmc_usic.h ****  * @param  channel Pointer to USIC channel handler of type @ref XMC_USIC_CH_t \n
 753:C:/Users/Mafish/Documents/GitHub/MAB_Driver/Libraries/XMCLib/inc\xmc_usic.h ****  * 				   \b Range: @ref XMC_USIC0_CH0, @ref XMC_USIC0_CH1 to @ref XMC_USIC2_CH1 based on device su
 754:C:/Users/Mafish/Documents/GitHub/MAB_Driver/Libraries/XMCLib/inc\xmc_usic.h ****  * @param  input USIC channel input stage of type @ref XMC_USIC_CH_INPUT_t. \n
 755:C:/Users/Mafish/Documents/GitHub/MAB_Driver/Libraries/XMCLib/inc\xmc_usic.h ****  * 				 \b Range: @ref XMC_USIC_CH_INPUT_DX0 to @ref XMC_USIC_CH_INPUT_DX5
 756:C:/Users/Mafish/Documents/GitHub/MAB_Driver/Libraries/XMCLib/inc\xmc_usic.h ****  * @return None
 757:C:/Users/Mafish/Documents/GitHub/MAB_Driver/Libraries/XMCLib/inc\xmc_usic.h ****  *
 758:C:/Users/Mafish/Documents/GitHub/MAB_Driver/Libraries/XMCLib/inc\xmc_usic.h ****  * \par<b>Description</b><br>
 759:C:/Users/Mafish/Documents/GitHub/MAB_Driver/Libraries/XMCLib/inc\xmc_usic.h ****  * Enables input inversion for USIC channel input data signal. \n\n
 760:C:/Users/Mafish/Documents/GitHub/MAB_Driver/Libraries/XMCLib/inc\xmc_usic.h ****  *
 761:C:/Users/Mafish/Documents/GitHub/MAB_Driver/Libraries/XMCLib/inc\xmc_usic.h ****  * Polarity of the input source can be changed to provide inverted data input.
 762:C:/Users/Mafish/Documents/GitHub/MAB_Driver/Libraries/XMCLib/inc\xmc_usic.h ****  * \par<b>Related APIs:</b><BR>
 763:C:/Users/Mafish/Documents/GitHub/MAB_Driver/Libraries/XMCLib/inc\xmc_usic.h ****  * XMC_USIC_CH_DisableInputInversion()\n\n\n
 764:C:/Users/Mafish/Documents/GitHub/MAB_Driver/Libraries/XMCLib/inc\xmc_usic.h ****  */
 765:C:/Users/Mafish/Documents/GitHub/MAB_Driver/Libraries/XMCLib/inc\xmc_usic.h **** __STATIC_INLINE void XMC_USIC_CH_EnableInputInversion(XMC_USIC_CH_t *const channel, const XMC_USIC_
 766:C:/Users/Mafish/Documents/GitHub/MAB_Driver/Libraries/XMCLib/inc\xmc_usic.h **** {
 767:C:/Users/Mafish/Documents/GitHub/MAB_Driver/Libraries/XMCLib/inc\xmc_usic.h ****   channel->DXCR[input] |= USIC_CH_DXCR_DPOL_Msk;
 768:C:/Users/Mafish/Documents/GitHub/MAB_Driver/Libraries/XMCLib/inc\xmc_usic.h **** }
 769:C:/Users/Mafish/Documents/GitHub/MAB_Driver/Libraries/XMCLib/inc\xmc_usic.h **** 
 770:C:/Users/Mafish/Documents/GitHub/MAB_Driver/Libraries/XMCLib/inc\xmc_usic.h **** /**
 771:C:/Users/Mafish/Documents/GitHub/MAB_Driver/Libraries/XMCLib/inc\xmc_usic.h ****  * @param  channel Pointer to USIC channel handler of type @ref XMC_USIC_CH_t \n
 772:C:/Users/Mafish/Documents/GitHub/MAB_Driver/Libraries/XMCLib/inc\xmc_usic.h ****  * 				   \b Range: @ref XMC_USIC0_CH0, @ref XMC_USIC0_CH1 to @ref XMC_USIC2_CH1 based on device su
 773:C:/Users/Mafish/Documents/GitHub/MAB_Driver/Libraries/XMCLib/inc\xmc_usic.h ****  * @param  input USIC channel input stage of type @ref XMC_USIC_CH_INPUT_t. \n
 774:C:/Users/Mafish/Documents/GitHub/MAB_Driver/Libraries/XMCLib/inc\xmc_usic.h ****  * 				 \b Range: @ref XMC_USIC_CH_INPUT_DX0 to @ref XMC_USIC_CH_INPUT_DX5
 775:C:/Users/Mafish/Documents/GitHub/MAB_Driver/Libraries/XMCLib/inc\xmc_usic.h ****  * @return None
 776:C:/Users/Mafish/Documents/GitHub/MAB_Driver/Libraries/XMCLib/inc\xmc_usic.h ****  *
 777:C:/Users/Mafish/Documents/GitHub/MAB_Driver/Libraries/XMCLib/inc\xmc_usic.h ****  * \par<b>Description</b><br>
 778:C:/Users/Mafish/Documents/GitHub/MAB_Driver/Libraries/XMCLib/inc\xmc_usic.h ****  * Disables input inversion for USIC channel. \n\n
 779:C:/Users/Mafish/Documents/GitHub/MAB_Driver/Libraries/XMCLib/inc\xmc_usic.h ****  *
 780:C:/Users/Mafish/Documents/GitHub/MAB_Driver/Libraries/XMCLib/inc\xmc_usic.h ****  * Resets the input data polarity for the USIC channel input data signal.
 781:C:/Users/Mafish/Documents/GitHub/MAB_Driver/Libraries/XMCLib/inc\xmc_usic.h ****  * \par<b>Related APIs:</b><BR>
 782:C:/Users/Mafish/Documents/GitHub/MAB_Driver/Libraries/XMCLib/inc\xmc_usic.h ****  * XMC_USIC_CH_EnableInputInversion()\n\n\n
 783:C:/Users/Mafish/Documents/GitHub/MAB_Driver/Libraries/XMCLib/inc\xmc_usic.h ****  */
 784:C:/Users/Mafish/Documents/GitHub/MAB_Driver/Libraries/XMCLib/inc\xmc_usic.h **** __STATIC_INLINE void XMC_USIC_CH_DisableInputInversion(XMC_USIC_CH_t *const channel, const XMC_USIC
 785:C:/Users/Mafish/Documents/GitHub/MAB_Driver/Libraries/XMCLib/inc\xmc_usic.h **** {
 786:C:/Users/Mafish/Documents/GitHub/MAB_Driver/Libraries/XMCLib/inc\xmc_usic.h ****   channel->DXCR[input] &=(uint32_t)~USIC_CH_DXCR_DPOL_Msk;
 787:C:/Users/Mafish/Documents/GitHub/MAB_Driver/Libraries/XMCLib/inc\xmc_usic.h **** }
 788:C:/Users/Mafish/Documents/GitHub/MAB_Driver/Libraries/XMCLib/inc\xmc_usic.h **** 
 789:C:/Users/Mafish/Documents/GitHub/MAB_Driver/Libraries/XMCLib/inc\xmc_usic.h **** /**
 790:C:/Users/Mafish/Documents/GitHub/MAB_Driver/Libraries/XMCLib/inc\xmc_usic.h ****  * @param  channel Pointer to USIC channel handler of type @ref XMC_USIC_CH_t \n
 791:C:/Users/Mafish/Documents/GitHub/MAB_Driver/Libraries/XMCLib/inc\xmc_usic.h ****  * 				   \b Range: @ref XMC_USIC0_CH0, @ref XMC_USIC0_CH1 to @ref XMC_USIC2_CH1 based on device su
 792:C:/Users/Mafish/Documents/GitHub/MAB_Driver/Libraries/XMCLib/inc\xmc_usic.h ****  * @return None
 793:C:/Users/Mafish/Documents/GitHub/MAB_Driver/Libraries/XMCLib/inc\xmc_usic.h ****  *
 794:C:/Users/Mafish/Documents/GitHub/MAB_Driver/Libraries/XMCLib/inc\xmc_usic.h ****  * \par<b>Description</b><br>
 795:C:/Users/Mafish/Documents/GitHub/MAB_Driver/Libraries/XMCLib/inc\xmc_usic.h ****  * Enables delay compensation. \n\n
 796:C:/Users/Mafish/Documents/GitHub/MAB_Driver/Libraries/XMCLib/inc\xmc_usic.h ****  *
 797:C:/Users/Mafish/Documents/GitHub/MAB_Driver/Libraries/XMCLib/inc\xmc_usic.h ****  * Delay compensation can be applied to the receive path.
 798:C:/Users/Mafish/Documents/GitHub/MAB_Driver/Libraries/XMCLib/inc\xmc_usic.h ****  * \par<b>Related APIs:</b><BR>
 799:C:/Users/Mafish/Documents/GitHub/MAB_Driver/Libraries/XMCLib/inc\xmc_usic.h ****  * XMC_USIC_CH_DisableDelayCompensation()\n\n\n
 800:C:/Users/Mafish/Documents/GitHub/MAB_Driver/Libraries/XMCLib/inc\xmc_usic.h ****  */
 801:C:/Users/Mafish/Documents/GitHub/MAB_Driver/Libraries/XMCLib/inc\xmc_usic.h **** __STATIC_INLINE void XMC_USIC_CH_EnableDelayCompensation(XMC_USIC_CH_t *const channel)
 802:C:/Users/Mafish/Documents/GitHub/MAB_Driver/Libraries/XMCLib/inc\xmc_usic.h **** {
 803:C:/Users/Mafish/Documents/GitHub/MAB_Driver/Libraries/XMCLib/inc\xmc_usic.h ****   channel->DXCR[1U] |= USIC_CH_DX1CR_DCEN_Msk;
 804:C:/Users/Mafish/Documents/GitHub/MAB_Driver/Libraries/XMCLib/inc\xmc_usic.h **** }
 805:C:/Users/Mafish/Documents/GitHub/MAB_Driver/Libraries/XMCLib/inc\xmc_usic.h **** 
 806:C:/Users/Mafish/Documents/GitHub/MAB_Driver/Libraries/XMCLib/inc\xmc_usic.h **** /**
 807:C:/Users/Mafish/Documents/GitHub/MAB_Driver/Libraries/XMCLib/inc\xmc_usic.h ****  * @param  channel Pointer to USIC channel handler of type @ref XMC_USIC_CH_t \n
 808:C:/Users/Mafish/Documents/GitHub/MAB_Driver/Libraries/XMCLib/inc\xmc_usic.h ****  * 				   \b Range: @ref XMC_USIC0_CH0, @ref XMC_USIC0_CH1 to @ref XMC_USIC2_CH1 based on device su
 809:C:/Users/Mafish/Documents/GitHub/MAB_Driver/Libraries/XMCLib/inc\xmc_usic.h ****  * @return None
 810:C:/Users/Mafish/Documents/GitHub/MAB_Driver/Libraries/XMCLib/inc\xmc_usic.h ****  *
 811:C:/Users/Mafish/Documents/GitHub/MAB_Driver/Libraries/XMCLib/inc\xmc_usic.h ****  * \par<b>Description</b><br>
 812:C:/Users/Mafish/Documents/GitHub/MAB_Driver/Libraries/XMCLib/inc\xmc_usic.h ****  * Disables delay compensation.. \n\n
 813:C:/Users/Mafish/Documents/GitHub/MAB_Driver/Libraries/XMCLib/inc\xmc_usic.h ****  *
 814:C:/Users/Mafish/Documents/GitHub/MAB_Driver/Libraries/XMCLib/inc\xmc_usic.h ****  * \par<b>Related APIs:</b><BR>
 815:C:/Users/Mafish/Documents/GitHub/MAB_Driver/Libraries/XMCLib/inc\xmc_usic.h ****  * XMC_USIC_CH_EnableDelayCompensation()\n\n\n
 816:C:/Users/Mafish/Documents/GitHub/MAB_Driver/Libraries/XMCLib/inc\xmc_usic.h ****  */
 817:C:/Users/Mafish/Documents/GitHub/MAB_Driver/Libraries/XMCLib/inc\xmc_usic.h **** __STATIC_INLINE void XMC_USIC_CH_DisableDelayCompensation(XMC_USIC_CH_t *const channel)
 818:C:/Users/Mafish/Documents/GitHub/MAB_Driver/Libraries/XMCLib/inc\xmc_usic.h **** {
 819:C:/Users/Mafish/Documents/GitHub/MAB_Driver/Libraries/XMCLib/inc\xmc_usic.h ****   channel->DXCR[1U] &=(uint32_t)~USIC_CH_DX1CR_DCEN_Msk;
 820:C:/Users/Mafish/Documents/GitHub/MAB_Driver/Libraries/XMCLib/inc\xmc_usic.h **** }
 821:C:/Users/Mafish/Documents/GitHub/MAB_Driver/Libraries/XMCLib/inc\xmc_usic.h **** 
 822:C:/Users/Mafish/Documents/GitHub/MAB_Driver/Libraries/XMCLib/inc\xmc_usic.h **** /**
 823:C:/Users/Mafish/Documents/GitHub/MAB_Driver/Libraries/XMCLib/inc\xmc_usic.h ****  * @param  channel Pointer to USIC channel handler of type @ref XMC_USIC_CH_t \n
 824:C:/Users/Mafish/Documents/GitHub/MAB_Driver/Libraries/XMCLib/inc\xmc_usic.h ****  * 				   \b Range: @ref XMC_USIC0_CH0, @ref XMC_USIC0_CH1 to @ref XMC_USIC2_CH1 based on device su
 825:C:/Users/Mafish/Documents/GitHub/MAB_Driver/Libraries/XMCLib/inc\xmc_usic.h ****  * @param  input USIC channel input stage of type @ref XMC_USIC_CH_INPUT_t. \n
 826:C:/Users/Mafish/Documents/GitHub/MAB_Driver/Libraries/XMCLib/inc\xmc_usic.h ****  * 				 \b Range: @ref XMC_USIC_CH_INPUT_DX0 to @ref XMC_USIC_CH_INPUT_DX5
 827:C:/Users/Mafish/Documents/GitHub/MAB_Driver/Libraries/XMCLib/inc\xmc_usic.h ****  * @return None
 828:C:/Users/Mafish/Documents/GitHub/MAB_Driver/Libraries/XMCLib/inc\xmc_usic.h ****  *
 829:C:/Users/Mafish/Documents/GitHub/MAB_Driver/Libraries/XMCLib/inc\xmc_usic.h ****  * \par<b>Description</b><br>
 830:C:/Users/Mafish/Documents/GitHub/MAB_Driver/Libraries/XMCLib/inc\xmc_usic.h ****  * Enables the input digital filter for USIC channel input data signal. \n\n
 831:C:/Users/Mafish/Documents/GitHub/MAB_Driver/Libraries/XMCLib/inc\xmc_usic.h ****  * Input data signal from the selected multiplexer will be digitally filtered.
 832:C:/Users/Mafish/Documents/GitHub/MAB_Driver/Libraries/XMCLib/inc\xmc_usic.h ****  *
 833:C:/Users/Mafish/Documents/GitHub/MAB_Driver/Libraries/XMCLib/inc\xmc_usic.h ****  * \par<b>Related APIs:</b><BR>
 834:C:/Users/Mafish/Documents/GitHub/MAB_Driver/Libraries/XMCLib/inc\xmc_usic.h ****  * XMC_USIC_CH_DisableInputDigitalFilter()\n\n\n
 835:C:/Users/Mafish/Documents/GitHub/MAB_Driver/Libraries/XMCLib/inc\xmc_usic.h ****  */
 836:C:/Users/Mafish/Documents/GitHub/MAB_Driver/Libraries/XMCLib/inc\xmc_usic.h **** __STATIC_INLINE void XMC_USIC_CH_EnableInputDigitalFilter(XMC_USIC_CH_t *const channel, const XMC_U
 837:C:/Users/Mafish/Documents/GitHub/MAB_Driver/Libraries/XMCLib/inc\xmc_usic.h **** {
 838:C:/Users/Mafish/Documents/GitHub/MAB_Driver/Libraries/XMCLib/inc\xmc_usic.h ****   channel->DXCR[input] |= (uint32_t)USIC_CH_DXCR_DFEN_Msk;
 839:C:/Users/Mafish/Documents/GitHub/MAB_Driver/Libraries/XMCLib/inc\xmc_usic.h **** }
 840:C:/Users/Mafish/Documents/GitHub/MAB_Driver/Libraries/XMCLib/inc\xmc_usic.h **** /**
 841:C:/Users/Mafish/Documents/GitHub/MAB_Driver/Libraries/XMCLib/inc\xmc_usic.h ****  * @param  channel Pointer to USIC channel handler of type @ref XMC_USIC_CH_t \n
 842:C:/Users/Mafish/Documents/GitHub/MAB_Driver/Libraries/XMCLib/inc\xmc_usic.h ****  * 				   \b Range: @ref XMC_USIC0_CH0, @ref XMC_USIC0_CH1 to @ref XMC_USIC2_CH1 based on device su
 843:C:/Users/Mafish/Documents/GitHub/MAB_Driver/Libraries/XMCLib/inc\xmc_usic.h ****  * @param  input USIC channel input stage of type @ref XMC_USIC_CH_INPUT_t. \n
 844:C:/Users/Mafish/Documents/GitHub/MAB_Driver/Libraries/XMCLib/inc\xmc_usic.h ****  * 				 \b Range: @ref XMC_USIC_CH_INPUT_DX0 to @ref XMC_USIC_CH_INPUT_DX5
 845:C:/Users/Mafish/Documents/GitHub/MAB_Driver/Libraries/XMCLib/inc\xmc_usic.h ****  * @return None
 846:C:/Users/Mafish/Documents/GitHub/MAB_Driver/Libraries/XMCLib/inc\xmc_usic.h ****  *
 847:C:/Users/Mafish/Documents/GitHub/MAB_Driver/Libraries/XMCLib/inc\xmc_usic.h ****  * \par<b>Description</b><br>
 848:C:/Users/Mafish/Documents/GitHub/MAB_Driver/Libraries/XMCLib/inc\xmc_usic.h ****  * Disables the input digital filter for USIC channel input data signal. \n\n
 849:C:/Users/Mafish/Documents/GitHub/MAB_Driver/Libraries/XMCLib/inc\xmc_usic.h ****  * Input data signal from the selected multiplexer will not be digitally filtered.
 850:C:/Users/Mafish/Documents/GitHub/MAB_Driver/Libraries/XMCLib/inc\xmc_usic.h ****  *
 851:C:/Users/Mafish/Documents/GitHub/MAB_Driver/Libraries/XMCLib/inc\xmc_usic.h ****  * \par<b>Related APIs:</b><BR>
 852:C:/Users/Mafish/Documents/GitHub/MAB_Driver/Libraries/XMCLib/inc\xmc_usic.h ****  * XMC_USIC_CH_EnableInputDigitalFilter()\n\n\n
 853:C:/Users/Mafish/Documents/GitHub/MAB_Driver/Libraries/XMCLib/inc\xmc_usic.h ****  */
 854:C:/Users/Mafish/Documents/GitHub/MAB_Driver/Libraries/XMCLib/inc\xmc_usic.h **** __STATIC_INLINE void XMC_USIC_CH_DisableInputDigitalFilter(XMC_USIC_CH_t *const channel, const XMC_
 855:C:/Users/Mafish/Documents/GitHub/MAB_Driver/Libraries/XMCLib/inc\xmc_usic.h **** {
 856:C:/Users/Mafish/Documents/GitHub/MAB_Driver/Libraries/XMCLib/inc\xmc_usic.h ****   channel->DXCR[input] &=(uint32_t)~USIC_CH_DXCR_DFEN_Msk;
 857:C:/Users/Mafish/Documents/GitHub/MAB_Driver/Libraries/XMCLib/inc\xmc_usic.h **** }
 858:C:/Users/Mafish/Documents/GitHub/MAB_Driver/Libraries/XMCLib/inc\xmc_usic.h **** /**
 859:C:/Users/Mafish/Documents/GitHub/MAB_Driver/Libraries/XMCLib/inc\xmc_usic.h ****  * @param  channel Pointer to USIC channel handler of type @ref XMC_USIC_CH_t \n
 860:C:/Users/Mafish/Documents/GitHub/MAB_Driver/Libraries/XMCLib/inc\xmc_usic.h ****  * 				   \b Range: @ref XMC_USIC0_CH0, @ref XMC_USIC0_CH1 to @ref XMC_USIC2_CH1 based on device su
 861:C:/Users/Mafish/Documents/GitHub/MAB_Driver/Libraries/XMCLib/inc\xmc_usic.h ****  * @param  input USIC channel input stage of type @ref XMC_USIC_CH_INPUT_t. \n
 862:C:/Users/Mafish/Documents/GitHub/MAB_Driver/Libraries/XMCLib/inc\xmc_usic.h ****  * 				 \b Range: @ref XMC_USIC_CH_INPUT_DX0 to @ref XMC_USIC_CH_INPUT_DX5
 863:C:/Users/Mafish/Documents/GitHub/MAB_Driver/Libraries/XMCLib/inc\xmc_usic.h ****  * @return None
 864:C:/Users/Mafish/Documents/GitHub/MAB_Driver/Libraries/XMCLib/inc\xmc_usic.h ****  *
 865:C:/Users/Mafish/Documents/GitHub/MAB_Driver/Libraries/XMCLib/inc\xmc_usic.h ****  * \par<b>Description</b><br>
 866:C:/Users/Mafish/Documents/GitHub/MAB_Driver/Libraries/XMCLib/inc\xmc_usic.h ****  * Enables input synchronization for the USIC channel input data signal. \n\n
 867:C:/Users/Mafish/Documents/GitHub/MAB_Driver/Libraries/XMCLib/inc\xmc_usic.h ****  * Input data signal from the selected multiplexer will be synchronized with fPERIPH.
 868:C:/Users/Mafish/Documents/GitHub/MAB_Driver/Libraries/XMCLib/inc\xmc_usic.h ****  * A noisy signal can be synchronized and filtered by enabling the digital filter.
 869:C:/Users/Mafish/Documents/GitHub/MAB_Driver/Libraries/XMCLib/inc\xmc_usic.h ****  *
 870:C:/Users/Mafish/Documents/GitHub/MAB_Driver/Libraries/XMCLib/inc\xmc_usic.h ****  * \par<b>Related APIs:</b><BR>
 871:C:/Users/Mafish/Documents/GitHub/MAB_Driver/Libraries/XMCLib/inc\xmc_usic.h ****  * XMC_USIC_CH_DisableInputSync(), XMC_USIC_CH_EnableInputDigitalFilter()\n\n\n
 872:C:/Users/Mafish/Documents/GitHub/MAB_Driver/Libraries/XMCLib/inc\xmc_usic.h ****  */
 873:C:/Users/Mafish/Documents/GitHub/MAB_Driver/Libraries/XMCLib/inc\xmc_usic.h **** __STATIC_INLINE void XMC_USIC_CH_EnableInputSync(XMC_USIC_CH_t *const channel, const XMC_USIC_CH_IN
 874:C:/Users/Mafish/Documents/GitHub/MAB_Driver/Libraries/XMCLib/inc\xmc_usic.h **** {
 875:C:/Users/Mafish/Documents/GitHub/MAB_Driver/Libraries/XMCLib/inc\xmc_usic.h ****   channel->DXCR[input] |=(uint32_t)USIC_CH_DXCR_DSEN_Msk;
 876:C:/Users/Mafish/Documents/GitHub/MAB_Driver/Libraries/XMCLib/inc\xmc_usic.h **** }
 877:C:/Users/Mafish/Documents/GitHub/MAB_Driver/Libraries/XMCLib/inc\xmc_usic.h **** /**
 878:C:/Users/Mafish/Documents/GitHub/MAB_Driver/Libraries/XMCLib/inc\xmc_usic.h ****  * @param  channel Pointer to USIC channel handler of type @ref XMC_USIC_CH_t \n
 879:C:/Users/Mafish/Documents/GitHub/MAB_Driver/Libraries/XMCLib/inc\xmc_usic.h ****  * 				   \b Range: @ref XMC_USIC0_CH0, @ref XMC_USIC0_CH1 to @ref XMC_USIC2_CH1 based on device su
 880:C:/Users/Mafish/Documents/GitHub/MAB_Driver/Libraries/XMCLib/inc\xmc_usic.h ****  * @param  input USIC channel input stage of type @ref XMC_USIC_CH_INPUT_t. \n
 881:C:/Users/Mafish/Documents/GitHub/MAB_Driver/Libraries/XMCLib/inc\xmc_usic.h ****  * 				 \b Range: @ref XMC_USIC_CH_INPUT_DX0 to @ref XMC_USIC_CH_INPUT_DX5
 882:C:/Users/Mafish/Documents/GitHub/MAB_Driver/Libraries/XMCLib/inc\xmc_usic.h ****  * @return None
 883:C:/Users/Mafish/Documents/GitHub/MAB_Driver/Libraries/XMCLib/inc\xmc_usic.h ****  *
 884:C:/Users/Mafish/Documents/GitHub/MAB_Driver/Libraries/XMCLib/inc\xmc_usic.h ****  * \par<b>Description</b><br>
 885:C:/Users/Mafish/Documents/GitHub/MAB_Driver/Libraries/XMCLib/inc\xmc_usic.h ****  * Disables input synchronization for the USIC channel input data signal. \n\n
 886:C:/Users/Mafish/Documents/GitHub/MAB_Driver/Libraries/XMCLib/inc\xmc_usic.h ****  * Input data signal from the selected multiplexer will not be synchronized.
 887:C:/Users/Mafish/Documents/GitHub/MAB_Driver/Libraries/XMCLib/inc\xmc_usic.h ****  *
 888:C:/Users/Mafish/Documents/GitHub/MAB_Driver/Libraries/XMCLib/inc\xmc_usic.h ****  * \par<b>Related APIs:</b><BR>
 889:C:/Users/Mafish/Documents/GitHub/MAB_Driver/Libraries/XMCLib/inc\xmc_usic.h ****  * XMC_USIC_CH_EnableInputSync(), XMC_USIC_CH_DisableInputDigitalFilter() \n\n\n
 890:C:/Users/Mafish/Documents/GitHub/MAB_Driver/Libraries/XMCLib/inc\xmc_usic.h ****  */
 891:C:/Users/Mafish/Documents/GitHub/MAB_Driver/Libraries/XMCLib/inc\xmc_usic.h **** __STATIC_INLINE void XMC_USIC_CH_DisableInputSync(XMC_USIC_CH_t *const channel, const XMC_USIC_CH_I
 892:C:/Users/Mafish/Documents/GitHub/MAB_Driver/Libraries/XMCLib/inc\xmc_usic.h **** {
 893:C:/Users/Mafish/Documents/GitHub/MAB_Driver/Libraries/XMCLib/inc\xmc_usic.h ****   channel->DXCR[input] &=(uint32_t)~USIC_CH_DXCR_DSEN_Msk;
 894:C:/Users/Mafish/Documents/GitHub/MAB_Driver/Libraries/XMCLib/inc\xmc_usic.h **** }
 895:C:/Users/Mafish/Documents/GitHub/MAB_Driver/Libraries/XMCLib/inc\xmc_usic.h **** /**
 896:C:/Users/Mafish/Documents/GitHub/MAB_Driver/Libraries/XMCLib/inc\xmc_usic.h ****  * @param  channel Pointer to USIC channel handler of type @ref XMC_USIC_CH_t \n
 897:C:/Users/Mafish/Documents/GitHub/MAB_Driver/Libraries/XMCLib/inc\xmc_usic.h ****  * 				   \b Range: @ref XMC_USIC0_CH0, @ref XMC_USIC0_CH1 to @ref XMC_USIC2_CH1 based on device su
 898:C:/Users/Mafish/Documents/GitHub/MAB_Driver/Libraries/XMCLib/inc\xmc_usic.h ****  * @param  input USIC channel input stage of type @ref XMC_USIC_CH_INPUT_t. \n
 899:C:/Users/Mafish/Documents/GitHub/MAB_Driver/Libraries/XMCLib/inc\xmc_usic.h ****  * 				 \b Range: @ref XMC_USIC_CH_INPUT_DX0 to @ref XMC_USIC_CH_INPUT_DX5
 900:C:/Users/Mafish/Documents/GitHub/MAB_Driver/Libraries/XMCLib/inc\xmc_usic.h ****  * @param  sampling_freq Sampling frequency value of type \a XMC_USIC_CH_INPUT_SAMPLING_FREQ_t.
 901:C:/Users/Mafish/Documents/GitHub/MAB_Driver/Libraries/XMCLib/inc\xmc_usic.h ****  * @return None
 902:C:/Users/Mafish/Documents/GitHub/MAB_Driver/Libraries/XMCLib/inc\xmc_usic.h ****  *
 903:C:/Users/Mafish/Documents/GitHub/MAB_Driver/Libraries/XMCLib/inc\xmc_usic.h ****  * \par<b>Description</b><br>
 904:C:/Users/Mafish/Documents/GitHub/MAB_Driver/Libraries/XMCLib/inc\xmc_usic.h ****  * Sets sampling frequency for USIC channel input data signal. \n\n
 905:C:/Users/Mafish/Documents/GitHub/MAB_Driver/Libraries/XMCLib/inc\xmc_usic.h ****  *
 906:C:/Users/Mafish/Documents/GitHub/MAB_Driver/Libraries/XMCLib/inc\xmc_usic.h ****  * \par<b>Related APIs:</b><BR>
 907:C:/Users/Mafish/Documents/GitHub/MAB_Driver/Libraries/XMCLib/inc\xmc_usic.h ****  * XMC_USIC_CH_SetInputSource(), XMC_USIC_CH_EnableInputSync(), XMC_USIC_CH_EnableInputDigitalFilte
 908:C:/Users/Mafish/Documents/GitHub/MAB_Driver/Libraries/XMCLib/inc\xmc_usic.h ****  */
 909:C:/Users/Mafish/Documents/GitHub/MAB_Driver/Libraries/XMCLib/inc\xmc_usic.h **** __STATIC_INLINE void XMC_USIC_CH_SetInputSamplingFreq(XMC_USIC_CH_t *const channel,
 910:C:/Users/Mafish/Documents/GitHub/MAB_Driver/Libraries/XMCLib/inc\xmc_usic.h **** 		                                              const XMC_USIC_CH_INPUT_t input,
 911:C:/Users/Mafish/Documents/GitHub/MAB_Driver/Libraries/XMCLib/inc\xmc_usic.h **** 		                                              const XMC_USIC_CH_INPUT_SAMPLING_FREQ_t sampling_fr
 912:C:/Users/Mafish/Documents/GitHub/MAB_Driver/Libraries/XMCLib/inc\xmc_usic.h **** {
 913:C:/Users/Mafish/Documents/GitHub/MAB_Driver/Libraries/XMCLib/inc\xmc_usic.h ****   channel->DXCR[input] = (uint32_t)(channel->DXCR[input] & (~USIC_CH_DXCR_SFSEL_Msk)) |
 914:C:/Users/Mafish/Documents/GitHub/MAB_Driver/Libraries/XMCLib/inc\xmc_usic.h ****                          ((uint32_t)sampling_freq);
 915:C:/Users/Mafish/Documents/GitHub/MAB_Driver/Libraries/XMCLib/inc\xmc_usic.h **** }
 916:C:/Users/Mafish/Documents/GitHub/MAB_Driver/Libraries/XMCLib/inc\xmc_usic.h **** 
 917:C:/Users/Mafish/Documents/GitHub/MAB_Driver/Libraries/XMCLib/inc\xmc_usic.h **** /**
 918:C:/Users/Mafish/Documents/GitHub/MAB_Driver/Libraries/XMCLib/inc\xmc_usic.h ****  * @param  channel Pointer to USIC channel handler of type @ref XMC_USIC_CH_t \n
 919:C:/Users/Mafish/Documents/GitHub/MAB_Driver/Libraries/XMCLib/inc\xmc_usic.h ****  * 				   \b Range: @ref XMC_USIC0_CH0, @ref XMC_USIC0_CH1 to @ref XMC_USIC2_CH1 based on device su
 920:C:/Users/Mafish/Documents/GitHub/MAB_Driver/Libraries/XMCLib/inc\xmc_usic.h ****  * @param  input USIC channel input stage of type @ref XMC_USIC_CH_INPUT_t. \n
 921:C:/Users/Mafish/Documents/GitHub/MAB_Driver/Libraries/XMCLib/inc\xmc_usic.h ****  * 				 \b Range: @ref XMC_USIC_CH_INPUT_DX0 to @ref XMC_USIC_CH_INPUT_DX5
 922:C:/Users/Mafish/Documents/GitHub/MAB_Driver/Libraries/XMCLib/inc\xmc_usic.h ****  * @param  combination_mode Combination mode value of type \a XMC_USIC_CH_INPUT_COMBINATION_MODE_t.
 923:C:/Users/Mafish/Documents/GitHub/MAB_Driver/Libraries/XMCLib/inc\xmc_usic.h ****  * @return None
 924:C:/Users/Mafish/Documents/GitHub/MAB_Driver/Libraries/XMCLib/inc\xmc_usic.h ****  *
 925:C:/Users/Mafish/Documents/GitHub/MAB_Driver/Libraries/XMCLib/inc\xmc_usic.h ****  * \par<b>Description</b><br>
 926:C:/Users/Mafish/Documents/GitHub/MAB_Driver/Libraries/XMCLib/inc\xmc_usic.h ****  * Selects which edge of the synchronized signal DXnS activates the trigger output DXnT of the inpu
 927:C:/Users/Mafish/Documents/GitHub/MAB_Driver/Libraries/XMCLib/inc\xmc_usic.h ****  *
 928:C:/Users/Mafish/Documents/GitHub/MAB_Driver/Libraries/XMCLib/inc\xmc_usic.h ****  * \par<b>Related APIs:</b><BR>
 929:C:/Users/Mafish/Documents/GitHub/MAB_Driver/Libraries/XMCLib/inc\xmc_usic.h ****  * XMC_USIC_CH_SetInputSource(), XMC_USIC_CH_EnableInputSync(), XMC_USIC_CH_EnableInputDigitalFilte
 930:C:/Users/Mafish/Documents/GitHub/MAB_Driver/Libraries/XMCLib/inc\xmc_usic.h ****  */
 931:C:/Users/Mafish/Documents/GitHub/MAB_Driver/Libraries/XMCLib/inc\xmc_usic.h **** __STATIC_INLINE void XMC_USIC_CH_SetInputTriggerCombinationMode(XMC_USIC_CH_t *const channel,
 932:C:/Users/Mafish/Documents/GitHub/MAB_Driver/Libraries/XMCLib/inc\xmc_usic.h **** 		                                                        const XMC_USIC_CH_INPUT_t input,
 933:C:/Users/Mafish/Documents/GitHub/MAB_Driver/Libraries/XMCLib/inc\xmc_usic.h **** 		                                                        const XMC_USIC_CH_INPUT_COMBINATION_MODE_
 934:C:/Users/Mafish/Documents/GitHub/MAB_Driver/Libraries/XMCLib/inc\xmc_usic.h **** {
 935:C:/Users/Mafish/Documents/GitHub/MAB_Driver/Libraries/XMCLib/inc\xmc_usic.h ****   channel->DXCR[input] = (uint32_t)(channel->DXCR[input] & (~USIC_CH_DXCR_CM_Msk)) |
 936:C:/Users/Mafish/Documents/GitHub/MAB_Driver/Libraries/XMCLib/inc\xmc_usic.h ****                          ((uint32_t)combination_mode << USIC_CH_DXCR_CM_Pos);
 937:C:/Users/Mafish/Documents/GitHub/MAB_Driver/Libraries/XMCLib/inc\xmc_usic.h **** }
 938:C:/Users/Mafish/Documents/GitHub/MAB_Driver/Libraries/XMCLib/inc\xmc_usic.h **** 
 939:C:/Users/Mafish/Documents/GitHub/MAB_Driver/Libraries/XMCLib/inc\xmc_usic.h **** /**
 940:C:/Users/Mafish/Documents/GitHub/MAB_Driver/Libraries/XMCLib/inc\xmc_usic.h ****  * @param  channel Pointer to USIC channel handler of type @ref XMC_USIC_CH_t \n
 941:C:/Users/Mafish/Documents/GitHub/MAB_Driver/Libraries/XMCLib/inc\xmc_usic.h ****  * 				   \b Range: @ref XMC_USIC0_CH0, @ref XMC_USIC0_CH1 to @ref XMC_USIC2_CH1 based on device su
 942:C:/Users/Mafish/Documents/GitHub/MAB_Driver/Libraries/XMCLib/inc\xmc_usic.h ****  * @param  clock_source clock source for the BRG.
 943:C:/Users/Mafish/Documents/GitHub/MAB_Driver/Libraries/XMCLib/inc\xmc_usic.h ****  * @return None
 944:C:/Users/Mafish/Documents/GitHub/MAB_Driver/Libraries/XMCLib/inc\xmc_usic.h ****  *
 945:C:/Users/Mafish/Documents/GitHub/MAB_Driver/Libraries/XMCLib/inc\xmc_usic.h ****  * \par<b>Description</b><br>
 946:C:/Users/Mafish/Documents/GitHub/MAB_Driver/Libraries/XMCLib/inc\xmc_usic.h ****  * Sets the clock source for the BRG. \n\n
 947:C:/Users/Mafish/Documents/GitHub/MAB_Driver/Libraries/XMCLib/inc\xmc_usic.h ****  *
 948:C:/Users/Mafish/Documents/GitHub/MAB_Driver/Libraries/XMCLib/inc\xmc_usic.h ****  * \par<b>Related APIs:</b><BR>
 949:C:/Users/Mafish/Documents/GitHub/MAB_Driver/Libraries/XMCLib/inc\xmc_usic.h ****  * XMC_USIC_CH_SetInputTriggerCombinationMode(), XMC_USIC_CH_SetExternalClockBRGDivider()\n\n\n
 950:C:/Users/Mafish/Documents/GitHub/MAB_Driver/Libraries/XMCLib/inc\xmc_usic.h ****  */
 951:C:/Users/Mafish/Documents/GitHub/MAB_Driver/Libraries/XMCLib/inc\xmc_usic.h **** __STATIC_INLINE void XMC_USIC_CH_SetBRGInputClockSource(XMC_USIC_CH_t *const channel, const XMC_USI
 952:C:/Users/Mafish/Documents/GitHub/MAB_Driver/Libraries/XMCLib/inc\xmc_usic.h **** {
 953:C:/Users/Mafish/Documents/GitHub/MAB_Driver/Libraries/XMCLib/inc\xmc_usic.h ****   channel->BRG = (uint32_t)(channel->BRG & (~USIC_CH_BRG_CLKSEL_Msk)) | (uint32_t)(clock_source);
 954:C:/Users/Mafish/Documents/GitHub/MAB_Driver/Libraries/XMCLib/inc\xmc_usic.h **** }
 955:C:/Users/Mafish/Documents/GitHub/MAB_Driver/Libraries/XMCLib/inc\xmc_usic.h **** 
 956:C:/Users/Mafish/Documents/GitHub/MAB_Driver/Libraries/XMCLib/inc\xmc_usic.h **** /**
 957:C:/Users/Mafish/Documents/GitHub/MAB_Driver/Libraries/XMCLib/inc\xmc_usic.h ****  * @param channel Pointer to USIC channel handler of type @ref XMC_USIC_CH_t \n
 958:C:/Users/Mafish/Documents/GitHub/MAB_Driver/Libraries/XMCLib/inc\xmc_usic.h ****  * 				   \b Range: @ref XMC_USIC0_CH0, @ref XMC_USIC0_CH1 to @ref XMC_USIC2_CH1 based on device su
 959:C:/Users/Mafish/Documents/GitHub/MAB_Driver/Libraries/XMCLib/inc\xmc_usic.h ****  * @param data Data to be transmitted. \n
 960:C:/Users/Mafish/Documents/GitHub/MAB_Driver/Libraries/XMCLib/inc\xmc_usic.h ****  *           \b Range: 16bit unsigned data. minimum= 0, maximum= 65535
 961:C:/Users/Mafish/Documents/GitHub/MAB_Driver/Libraries/XMCLib/inc\xmc_usic.h ****  * @return None
 962:C:/Users/Mafish/Documents/GitHub/MAB_Driver/Libraries/XMCLib/inc\xmc_usic.h ****  *
 963:C:/Users/Mafish/Documents/GitHub/MAB_Driver/Libraries/XMCLib/inc\xmc_usic.h ****  * \par<b>Description</b><br>
 964:C:/Users/Mafish/Documents/GitHub/MAB_Driver/Libraries/XMCLib/inc\xmc_usic.h ****  * Writes data into the transmit buffer. \n\n
 965:C:/Users/Mafish/Documents/GitHub/MAB_Driver/Libraries/XMCLib/inc\xmc_usic.h ****  * The data provided is placed in TBUF[0U].
 966:C:/Users/Mafish/Documents/GitHub/MAB_Driver/Libraries/XMCLib/inc\xmc_usic.h ****  *
 967:C:/Users/Mafish/Documents/GitHub/MAB_Driver/Libraries/XMCLib/inc\xmc_usic.h ****  *
 968:C:/Users/Mafish/Documents/GitHub/MAB_Driver/Libraries/XMCLib/inc\xmc_usic.h ****  * \par<b>Related APIs:</b><BR>
 969:C:/Users/Mafish/Documents/GitHub/MAB_Driver/Libraries/XMCLib/inc\xmc_usic.h ****  * XMC_USIC_CH_WriteToTBUFTCI() \n\n\n
 970:C:/Users/Mafish/Documents/GitHub/MAB_Driver/Libraries/XMCLib/inc\xmc_usic.h ****  */
 971:C:/Users/Mafish/Documents/GitHub/MAB_Driver/Libraries/XMCLib/inc\xmc_usic.h **** __STATIC_INLINE void XMC_USIC_CH_WriteToTBUF(XMC_USIC_CH_t *const channel, const uint16_t data)
 972:C:/Users/Mafish/Documents/GitHub/MAB_Driver/Libraries/XMCLib/inc\xmc_usic.h **** {
 973:C:/Users/Mafish/Documents/GitHub/MAB_Driver/Libraries/XMCLib/inc\xmc_usic.h ****   channel->TBUF[0U] = data;
 974:C:/Users/Mafish/Documents/GitHub/MAB_Driver/Libraries/XMCLib/inc\xmc_usic.h **** }
 975:C:/Users/Mafish/Documents/GitHub/MAB_Driver/Libraries/XMCLib/inc\xmc_usic.h **** 
 976:C:/Users/Mafish/Documents/GitHub/MAB_Driver/Libraries/XMCLib/inc\xmc_usic.h **** /**
 977:C:/Users/Mafish/Documents/GitHub/MAB_Driver/Libraries/XMCLib/inc\xmc_usic.h ****  * @param channel Pointer to USIC channel handler of type @ref XMC_USIC_CH_t \n
 978:C:/Users/Mafish/Documents/GitHub/MAB_Driver/Libraries/XMCLib/inc\xmc_usic.h ****  * 				   \b Range: @ref XMC_USIC0_CH0, @ref XMC_USIC0_CH1 to @ref XMC_USIC2_CH1 based on device su
 979:C:/Users/Mafish/Documents/GitHub/MAB_Driver/Libraries/XMCLib/inc\xmc_usic.h ****  * @param data Data to be transmitted.
 980:C:/Users/Mafish/Documents/GitHub/MAB_Driver/Libraries/XMCLib/inc\xmc_usic.h ****  * @param transmit_control_information transmit control information to be configured while transmit
 981:C:/Users/Mafish/Documents/GitHub/MAB_Driver/Libraries/XMCLib/inc\xmc_usic.h ****  * 			\b Range: minimum= 0, maximum= 31.
 982:C:/Users/Mafish/Documents/GitHub/MAB_Driver/Libraries/XMCLib/inc\xmc_usic.h ****  * @return None
 983:C:/Users/Mafish/Documents/GitHub/MAB_Driver/Libraries/XMCLib/inc\xmc_usic.h ****  *
 984:C:/Users/Mafish/Documents/GitHub/MAB_Driver/Libraries/XMCLib/inc\xmc_usic.h ****  * \par<b>Description</b><br>
 985:C:/Users/Mafish/Documents/GitHub/MAB_Driver/Libraries/XMCLib/inc\xmc_usic.h ****  * Writes data to the transmit buffer in a control mode. \n\n
 986:C:/Users/Mafish/Documents/GitHub/MAB_Driver/Libraries/XMCLib/inc\xmc_usic.h ****  * When the respective control mode is enabled , this API can be used.
 987:C:/Users/Mafish/Documents/GitHub/MAB_Driver/Libraries/XMCLib/inc\xmc_usic.h ****  *
 988:C:/Users/Mafish/Documents/GitHub/MAB_Driver/Libraries/XMCLib/inc\xmc_usic.h ****  *
 989:C:/Users/Mafish/Documents/GitHub/MAB_Driver/Libraries/XMCLib/inc\xmc_usic.h ****  * \par<b>Related APIs:</b><BR>
 990:C:/Users/Mafish/Documents/GitHub/MAB_Driver/Libraries/XMCLib/inc\xmc_usic.h ****  * XMC_USIC_CH_WriteToTBUF() \n\n\n
 991:C:/Users/Mafish/Documents/GitHub/MAB_Driver/Libraries/XMCLib/inc\xmc_usic.h ****  */
 992:C:/Users/Mafish/Documents/GitHub/MAB_Driver/Libraries/XMCLib/inc\xmc_usic.h **** __STATIC_INLINE void XMC_USIC_CH_WriteToTBUFTCI(XMC_USIC_CH_t *const channel,
 993:C:/Users/Mafish/Documents/GitHub/MAB_Driver/Libraries/XMCLib/inc\xmc_usic.h ****                                              const uint16_t data,
 994:C:/Users/Mafish/Documents/GitHub/MAB_Driver/Libraries/XMCLib/inc\xmc_usic.h ****                                              const uint32_t transmit_control_information)
 995:C:/Users/Mafish/Documents/GitHub/MAB_Driver/Libraries/XMCLib/inc\xmc_usic.h **** {
 996:C:/Users/Mafish/Documents/GitHub/MAB_Driver/Libraries/XMCLib/inc\xmc_usic.h ****   channel->TBUF[transmit_control_information] = data;
 997:C:/Users/Mafish/Documents/GitHub/MAB_Driver/Libraries/XMCLib/inc\xmc_usic.h **** }
 998:C:/Users/Mafish/Documents/GitHub/MAB_Driver/Libraries/XMCLib/inc\xmc_usic.h **** 
 999:C:/Users/Mafish/Documents/GitHub/MAB_Driver/Libraries/XMCLib/inc\xmc_usic.h **** /**
1000:C:/Users/Mafish/Documents/GitHub/MAB_Driver/Libraries/XMCLib/inc\xmc_usic.h ****  * @param  channel Pointer to USIC channel handler of type @ref XMC_USIC_CH_t \n
1001:C:/Users/Mafish/Documents/GitHub/MAB_Driver/Libraries/XMCLib/inc\xmc_usic.h ****  * 				   \b Range: @ref XMC_USIC0_CH0, @ref XMC_USIC0_CH1 to @ref XMC_USIC2_CH1 based on device su
1002:C:/Users/Mafish/Documents/GitHub/MAB_Driver/Libraries/XMCLib/inc\xmc_usic.h ****  * @param  word_length Number of bits to be configured for a data word. \n
1003:C:/Users/Mafish/Documents/GitHub/MAB_Driver/Libraries/XMCLib/inc\xmc_usic.h ****  * 					   \b Range: minimum= 1, maximum= 16. \n
1004:C:/Users/Mafish/Documents/GitHub/MAB_Driver/Libraries/XMCLib/inc\xmc_usic.h ****  * 					   e.g: For word length of 8, \a word_length should be provided as 8.
1005:C:/Users/Mafish/Documents/GitHub/MAB_Driver/Libraries/XMCLib/inc\xmc_usic.h ****  * @return None
1006:C:/Users/Mafish/Documents/GitHub/MAB_Driver/Libraries/XMCLib/inc\xmc_usic.h ****  *
1007:C:/Users/Mafish/Documents/GitHub/MAB_Driver/Libraries/XMCLib/inc\xmc_usic.h ****  * \par<b>Description</b><br>
1008:C:/Users/Mafish/Documents/GitHub/MAB_Driver/Libraries/XMCLib/inc\xmc_usic.h ****  * Sets the data word length in number of bits. \n\n
1009:C:/Users/Mafish/Documents/GitHub/MAB_Driver/Libraries/XMCLib/inc\xmc_usic.h ****  * Sets the number of bits to represent a data word. Frame length should be a multiple of word leng
1010:C:/Users/Mafish/Documents/GitHub/MAB_Driver/Libraries/XMCLib/inc\xmc_usic.h ****  *
1011:C:/Users/Mafish/Documents/GitHub/MAB_Driver/Libraries/XMCLib/inc\xmc_usic.h ****  * \par<b>Related APIs:</b><BR>
1012:C:/Users/Mafish/Documents/GitHub/MAB_Driver/Libraries/XMCLib/inc\xmc_usic.h ****  * XMC_USIC_CH_SetFrameLength()\n\n\n
1013:C:/Users/Mafish/Documents/GitHub/MAB_Driver/Libraries/XMCLib/inc\xmc_usic.h ****  */
1014:C:/Users/Mafish/Documents/GitHub/MAB_Driver/Libraries/XMCLib/inc\xmc_usic.h **** __STATIC_INLINE void XMC_USIC_CH_SetWordLength(XMC_USIC_CH_t *const channel, const uint8_t word_len
1015:C:/Users/Mafish/Documents/GitHub/MAB_Driver/Libraries/XMCLib/inc\xmc_usic.h **** {
1016:C:/Users/Mafish/Documents/GitHub/MAB_Driver/Libraries/XMCLib/inc\xmc_usic.h ****   channel->SCTR = (uint32_t)(channel->SCTR & (~USIC_CH_SCTR_WLE_Msk)) |
1017:C:/Users/Mafish/Documents/GitHub/MAB_Driver/Libraries/XMCLib/inc\xmc_usic.h ****                   (uint32_t)(((uint32_t)word_length - 1UL)  << USIC_CH_SCTR_WLE_Pos);
1018:C:/Users/Mafish/Documents/GitHub/MAB_Driver/Libraries/XMCLib/inc\xmc_usic.h **** }
1019:C:/Users/Mafish/Documents/GitHub/MAB_Driver/Libraries/XMCLib/inc\xmc_usic.h **** 
1020:C:/Users/Mafish/Documents/GitHub/MAB_Driver/Libraries/XMCLib/inc\xmc_usic.h **** /**
1021:C:/Users/Mafish/Documents/GitHub/MAB_Driver/Libraries/XMCLib/inc\xmc_usic.h ****  * @param  channel Pointer to USIC channel handler of type @ref XMC_USIC_CH_t \n
1022:C:/Users/Mafish/Documents/GitHub/MAB_Driver/Libraries/XMCLib/inc\xmc_usic.h ****  *           \b Range: @ref XMC_USIC0_CH0, @ref XMC_USIC0_CH1 to @ref XMC_USIC2_CH1 based on device
1023:C:/Users/Mafish/Documents/GitHub/MAB_Driver/Libraries/XMCLib/inc\xmc_usic.h ****  * @param  word_length Number of bits to be configured for a data word. \n
1024:C:/Users/Mafish/Documents/GitHub/MAB_Driver/Libraries/XMCLib/inc\xmc_usic.h ****  *             \b Range: minimum= 1, maximum= 16. \n
1025:C:/Users/Mafish/Documents/GitHub/MAB_Driver/Libraries/XMCLib/inc\xmc_usic.h ****  *             e.g: For word length of 8, \a word_length should be provided as 8.
1026:C:/Users/Mafish/Documents/GitHub/MAB_Driver/Libraries/XMCLib/inc\xmc_usic.h ****  * @return None
1027:C:/Users/Mafish/Documents/GitHub/MAB_Driver/Libraries/XMCLib/inc\xmc_usic.h ****  *
1028:C:/Users/Mafish/Documents/GitHub/MAB_Driver/Libraries/XMCLib/inc\xmc_usic.h ****  * \par<b>Description</b><br>
1029:C:/Users/Mafish/Documents/GitHub/MAB_Driver/Libraries/XMCLib/inc\xmc_usic.h ****  * Sets the data word length in number of bits. \n\n
1030:C:/Users/Mafish/Documents/GitHub/MAB_Driver/Libraries/XMCLib/inc\xmc_usic.h ****  * Sets the number of bits to represent a data word. Frame length should be a multiple of word leng
1031:C:/Users/Mafish/Documents/GitHub/MAB_Driver/Libraries/XMCLib/inc\xmc_usic.h ****  *
1032:C:/Users/Mafish/Documents/GitHub/MAB_Driver/Libraries/XMCLib/inc\xmc_usic.h ****  * \par<b>Related APIs:</b><BR>
1033:C:/Users/Mafish/Documents/GitHub/MAB_Driver/Libraries/XMCLib/inc\xmc_usic.h ****  * XMC_USIC_CH_SetFrameLength()\n\n\n
1034:C:/Users/Mafish/Documents/GitHub/MAB_Driver/Libraries/XMCLib/inc\xmc_usic.h ****  */
1035:C:/Users/Mafish/Documents/GitHub/MAB_Driver/Libraries/XMCLib/inc\xmc_usic.h **** __STATIC_INLINE void XMC_USIC_CH_SetShiftDirection(XMC_USIC_CH_t *const channel, const XMC_USIC_CH_
1036:C:/Users/Mafish/Documents/GitHub/MAB_Driver/Libraries/XMCLib/inc\xmc_usic.h **** {
1037:C:/Users/Mafish/Documents/GitHub/MAB_Driver/Libraries/XMCLib/inc\xmc_usic.h ****   channel->SCTR = (uint32_t)(channel->SCTR & (~USIC_CH_SCTR_SDIR_Msk)) | (uint32_t)shift_direction;
1038:C:/Users/Mafish/Documents/GitHub/MAB_Driver/Libraries/XMCLib/inc\xmc_usic.h **** }
1039:C:/Users/Mafish/Documents/GitHub/MAB_Driver/Libraries/XMCLib/inc\xmc_usic.h **** 
1040:C:/Users/Mafish/Documents/GitHub/MAB_Driver/Libraries/XMCLib/inc\xmc_usic.h **** 
1041:C:/Users/Mafish/Documents/GitHub/MAB_Driver/Libraries/XMCLib/inc\xmc_usic.h **** /**
1042:C:/Users/Mafish/Documents/GitHub/MAB_Driver/Libraries/XMCLib/inc\xmc_usic.h ****  * @param  channel Pointer to USIC channel handler of type @ref XMC_USIC_CH_t \n
1043:C:/Users/Mafish/Documents/GitHub/MAB_Driver/Libraries/XMCLib/inc\xmc_usic.h ****  *           \b Range: @ref XMC_USIC0_CH0, @ref XMC_USIC0_CH1 to @ref XMC_USIC2_CH1 based on device
1044:C:/Users/Mafish/Documents/GitHub/MAB_Driver/Libraries/XMCLib/inc\xmc_usic.h ****  * @return Captured counter value 
1045:C:/Users/Mafish/Documents/GitHub/MAB_Driver/Libraries/XMCLib/inc\xmc_usic.h ****  *
1046:C:/Users/Mafish/Documents/GitHub/MAB_Driver/Libraries/XMCLib/inc\xmc_usic.h ****  *
1047:C:/Users/Mafish/Documents/GitHub/MAB_Driver/Libraries/XMCLib/inc\xmc_usic.h ****  * \par<b>Description</b><br>
1048:C:/Users/Mafish/Documents/GitHub/MAB_Driver/Libraries/XMCLib/inc\xmc_usic.h ****  * The value of the counter is captured if one of the trigger signals DX0T or DX1T are activated by
1049:C:/Users/Mafish/Documents/GitHub/MAB_Driver/Libraries/XMCLib/inc\xmc_usic.h ****  */
1050:C:/Users/Mafish/Documents/GitHub/MAB_Driver/Libraries/XMCLib/inc\xmc_usic.h **** __STATIC_INLINE uint32_t XMC_USIC_CH_GetCaptureTimerValue(const XMC_USIC_CH_t *const channel)
1051:C:/Users/Mafish/Documents/GitHub/MAB_Driver/Libraries/XMCLib/inc\xmc_usic.h **** {
1052:C:/Users/Mafish/Documents/GitHub/MAB_Driver/Libraries/XMCLib/inc\xmc_usic.h ****   return channel->CMTR;
1053:C:/Users/Mafish/Documents/GitHub/MAB_Driver/Libraries/XMCLib/inc\xmc_usic.h **** }
1054:C:/Users/Mafish/Documents/GitHub/MAB_Driver/Libraries/XMCLib/inc\xmc_usic.h **** 
1055:C:/Users/Mafish/Documents/GitHub/MAB_Driver/Libraries/XMCLib/inc\xmc_usic.h **** /**
1056:C:/Users/Mafish/Documents/GitHub/MAB_Driver/Libraries/XMCLib/inc\xmc_usic.h ****  * @param  channel Pointer to USIC channel handler of type @ref XMC_USIC_CH_t \n
1057:C:/Users/Mafish/Documents/GitHub/MAB_Driver/Libraries/XMCLib/inc\xmc_usic.h ****  *           \b Range: @ref XMC_USIC0_CH0, @ref XMC_USIC0_CH1 to @ref XMC_USIC2_CH1 based on device
1058:C:/Users/Mafish/Documents/GitHub/MAB_Driver/Libraries/XMCLib/inc\xmc_usic.h ****  * @param  mode divider mode ::XMC_USIC_CH_BRG_CLOCK_DIVIDER_MODE_t \n
1059:C:/Users/Mafish/Documents/GitHub/MAB_Driver/Libraries/XMCLib/inc\xmc_usic.h ****  * @param  step divider \n
1060:C:/Users/Mafish/Documents/GitHub/MAB_Driver/Libraries/XMCLib/inc\xmc_usic.h ****  *             \b XMC_USIC_CH_BRG_CLOCK_DIVIDER_MODE_NORMAL resulting divider = 1023 - step \n
1061:C:/Users/Mafish/Documents/GitHub/MAB_Driver/Libraries/XMCLib/inc\xmc_usic.h ****  *             \b XMC_USIC_CH_BRG_CLOCK_DIVIDER_MODE_FRACTIONAL resulting divider = 1023 / step \n
1062:C:/Users/Mafish/Documents/GitHub/MAB_Driver/Libraries/XMCLib/inc\xmc_usic.h ****  * 
1063:C:/Users/Mafish/Documents/GitHub/MAB_Driver/Libraries/XMCLib/inc\xmc_usic.h ****  * @return None
1064:C:/Users/Mafish/Documents/GitHub/MAB_Driver/Libraries/XMCLib/inc\xmc_usic.h ****  * 
1065:C:/Users/Mafish/Documents/GitHub/MAB_Driver/Libraries/XMCLib/inc\xmc_usic.h ****  * \par<b>Description</b><br>
1066:C:/Users/Mafish/Documents/GitHub/MAB_Driver/Libraries/XMCLib/inc\xmc_usic.h ****  * The fractional divider generates its output frequency fFD by either dividing the input frequency
1067:C:/Users/Mafish/Documents/GitHub/MAB_Driver/Libraries/XMCLib/inc\xmc_usic.h ****  *
1068:C:/Users/Mafish/Documents/GitHub/MAB_Driver/Libraries/XMCLib/inc\xmc_usic.h ****  */
1069:C:/Users/Mafish/Documents/GitHub/MAB_Driver/Libraries/XMCLib/inc\xmc_usic.h **** __STATIC_INLINE void XMC_USIC_CH_SetFractionalDivider(XMC_USIC_CH_t *const channel, const XMC_USIC_
1070:C:/Users/Mafish/Documents/GitHub/MAB_Driver/Libraries/XMCLib/inc\xmc_usic.h **** {
1071:C:/Users/Mafish/Documents/GitHub/MAB_Driver/Libraries/XMCLib/inc\xmc_usic.h ****   channel->FDR = mode | step;
1072:C:/Users/Mafish/Documents/GitHub/MAB_Driver/Libraries/XMCLib/inc\xmc_usic.h **** }
1073:C:/Users/Mafish/Documents/GitHub/MAB_Driver/Libraries/XMCLib/inc\xmc_usic.h **** 
1074:C:/Users/Mafish/Documents/GitHub/MAB_Driver/Libraries/XMCLib/inc\xmc_usic.h **** /**
1075:C:/Users/Mafish/Documents/GitHub/MAB_Driver/Libraries/XMCLib/inc\xmc_usic.h ****  * @param  channel Pointer to USIC channel handler of type @ref XMC_USIC_CH_t \n
1076:C:/Users/Mafish/Documents/GitHub/MAB_Driver/Libraries/XMCLib/inc\xmc_usic.h ****  * 				   \b Range: @ref XMC_USIC0_CH0, @ref XMC_USIC0_CH1 to @ref XMC_USIC2_CH1 based on device su
1077:C:/Users/Mafish/Documents/GitHub/MAB_Driver/Libraries/XMCLib/inc\xmc_usic.h ****  * @param  frame_length Number of bits in a frame. \n
1078:C:/Users/Mafish/Documents/GitHub/MAB_Driver/Libraries/XMCLib/inc\xmc_usic.h ****  * 						\b Range: minimum= 1, maximum= 0x3f. The maximum value for fixed frame size is 0x3f. \n
1079:C:/Users/Mafish/Documents/GitHub/MAB_Driver/Libraries/XMCLib/inc\xmc_usic.h ****  * 						e.g: For a frame length of 16, \a frame_length should be provided as 16.
1080:C:/Users/Mafish/Documents/GitHub/MAB_Driver/Libraries/XMCLib/inc\xmc_usic.h ****  * @return None
1081:C:/Users/Mafish/Documents/GitHub/MAB_Driver/Libraries/XMCLib/inc\xmc_usic.h ****  *
1082:C:/Users/Mafish/Documents/GitHub/MAB_Driver/Libraries/XMCLib/inc\xmc_usic.h ****  * \par<b>Description</b><br>
1083:C:/Users/Mafish/Documents/GitHub/MAB_Driver/Libraries/XMCLib/inc\xmc_usic.h ****  * Define the data frame length.\n\n
1084:C:/Users/Mafish/Documents/GitHub/MAB_Driver/Libraries/XMCLib/inc\xmc_usic.h ****  * Set the number of bits to be serially transmitted in a frame.
1085:C:/Users/Mafish/Documents/GitHub/MAB_Driver/Libraries/XMCLib/inc\xmc_usic.h ****  * The frame length should be multiples of word length. If the value is set to 0x40, the frame leng
1086:C:/Users/Mafish/Documents/GitHub/MAB_Driver/Libraries/XMCLib/inc\xmc_usic.h ****  * has to be controlled explicitly. 
1087:C:/Users/Mafish/Documents/GitHub/MAB_Driver/Libraries/XMCLib/inc\xmc_usic.h ****  *
1088:C:/Users/Mafish/Documents/GitHub/MAB_Driver/Libraries/XMCLib/inc\xmc_usic.h ****  * \par<b>Related APIs:</b><BR>
1089:C:/Users/Mafish/Documents/GitHub/MAB_Driver/Libraries/XMCLib/inc\xmc_usic.h ****  * XMC_USIC_CH_SetWordLength(), XMC_USIC_CH_EnableFrameLengthControl() \n\n\n
1090:C:/Users/Mafish/Documents/GitHub/MAB_Driver/Libraries/XMCLib/inc\xmc_usic.h ****  */
1091:C:/Users/Mafish/Documents/GitHub/MAB_Driver/Libraries/XMCLib/inc\xmc_usic.h **** __STATIC_INLINE void XMC_USIC_CH_SetFrameLength(XMC_USIC_CH_t *const channel, const uint8_t frame_l
1092:C:/Users/Mafish/Documents/GitHub/MAB_Driver/Libraries/XMCLib/inc\xmc_usic.h **** {
1093:C:/Users/Mafish/Documents/GitHub/MAB_Driver/Libraries/XMCLib/inc\xmc_usic.h ****   channel->SCTR = (uint32_t)(channel->SCTR & (~USIC_CH_SCTR_FLE_Msk)) |
1094:C:/Users/Mafish/Documents/GitHub/MAB_Driver/Libraries/XMCLib/inc\xmc_usic.h ****                   (((uint32_t)frame_length - 0x1U)  << USIC_CH_SCTR_FLE_Pos);
1095:C:/Users/Mafish/Documents/GitHub/MAB_Driver/Libraries/XMCLib/inc\xmc_usic.h **** }
1096:C:/Users/Mafish/Documents/GitHub/MAB_Driver/Libraries/XMCLib/inc\xmc_usic.h **** 
1097:C:/Users/Mafish/Documents/GitHub/MAB_Driver/Libraries/XMCLib/inc\xmc_usic.h **** /**
1098:C:/Users/Mafish/Documents/GitHub/MAB_Driver/Libraries/XMCLib/inc\xmc_usic.h ****  * @param channel Pointer to USIC channel handler of type @ref XMC_USIC_CH_t \n
1099:C:/Users/Mafish/Documents/GitHub/MAB_Driver/Libraries/XMCLib/inc\xmc_usic.h ****  * 				   \b Range: @ref XMC_USIC0_CH0, @ref XMC_USIC0_CH1 to @ref XMC_USIC2_CH1 based on device su
1100:C:/Users/Mafish/Documents/GitHub/MAB_Driver/Libraries/XMCLib/inc\xmc_usic.h ****  * @param event Bit mask of the channel events to be enabled. Use @ref XMC_USIC_CH_EVENT_t for the 
1101:C:/Users/Mafish/Documents/GitHub/MAB_Driver/Libraries/XMCLib/inc\xmc_usic.h ****  * 				\b Range: @ref XMC_USIC_CH_EVENT_RECEIVE_START, @ref XMC_USIC_CH_EVENT_DATA_LOST etc. Multip
1102:C:/Users/Mafish/Documents/GitHub/MAB_Driver/Libraries/XMCLib/inc\xmc_usic.h ****  * 				can be combined using \a OR operation.
1103:C:/Users/Mafish/Documents/GitHub/MAB_Driver/Libraries/XMCLib/inc\xmc_usic.h ****  * @return None
1104:C:/Users/Mafish/Documents/GitHub/MAB_Driver/Libraries/XMCLib/inc\xmc_usic.h ****  *
1105:C:/Users/Mafish/Documents/GitHub/MAB_Driver/Libraries/XMCLib/inc\xmc_usic.h ****  * \par<b>Description</b><br>
1106:C:/Users/Mafish/Documents/GitHub/MAB_Driver/Libraries/XMCLib/inc\xmc_usic.h ****  * Enable the channel interrupt events.\n\n
1107:C:/Users/Mafish/Documents/GitHub/MAB_Driver/Libraries/XMCLib/inc\xmc_usic.h ****  * Common channel events related to serial communication can be configured using this API.
1108:C:/Users/Mafish/Documents/GitHub/MAB_Driver/Libraries/XMCLib/inc\xmc_usic.h ****  * Multiple events can be combined using the bitwise OR operation and configured in one function ca
1109:C:/Users/Mafish/Documents/GitHub/MAB_Driver/Libraries/XMCLib/inc\xmc_usic.h ****  * XMC_USIC_CH_EVENT_t enumerates multiple protocol event bitmasks. These enumerations can be used 
1110:C:/Users/Mafish/Documents/GitHub/MAB_Driver/Libraries/XMCLib/inc\xmc_usic.h ****  *
1111:C:/Users/Mafish/Documents/GitHub/MAB_Driver/Libraries/XMCLib/inc\xmc_usic.h ****  * \par<b>Related APIs:</b><BR>
1112:C:/Users/Mafish/Documents/GitHub/MAB_Driver/Libraries/XMCLib/inc\xmc_usic.h ****  * XMC_USIC_CH_DisableEvent(), XMC_USIC_CH_SetInterruptNodePointer() \n\n\n
1113:C:/Users/Mafish/Documents/GitHub/MAB_Driver/Libraries/XMCLib/inc\xmc_usic.h ****  */
1114:C:/Users/Mafish/Documents/GitHub/MAB_Driver/Libraries/XMCLib/inc\xmc_usic.h **** __STATIC_INLINE void XMC_USIC_CH_EnableEvent(XMC_USIC_CH_t *const channel, const uint32_t event)
1115:C:/Users/Mafish/Documents/GitHub/MAB_Driver/Libraries/XMCLib/inc\xmc_usic.h **** {
1116:C:/Users/Mafish/Documents/GitHub/MAB_Driver/Libraries/XMCLib/inc\xmc_usic.h ****   channel->CCR |= event;
1117:C:/Users/Mafish/Documents/GitHub/MAB_Driver/Libraries/XMCLib/inc\xmc_usic.h **** }
1118:C:/Users/Mafish/Documents/GitHub/MAB_Driver/Libraries/XMCLib/inc\xmc_usic.h **** 
1119:C:/Users/Mafish/Documents/GitHub/MAB_Driver/Libraries/XMCLib/inc\xmc_usic.h **** /**
1120:C:/Users/Mafish/Documents/GitHub/MAB_Driver/Libraries/XMCLib/inc\xmc_usic.h ****  * @param channel Pointer to USIC channel handler of type @ref XMC_USIC_CH_t \n
1121:C:/Users/Mafish/Documents/GitHub/MAB_Driver/Libraries/XMCLib/inc\xmc_usic.h ****  * 				  \b Range: @ref XMC_USIC0_CH0, @ref XMC_USIC0_CH1 to @ref XMC_USIC2_CH1 based on device sup
1122:C:/Users/Mafish/Documents/GitHub/MAB_Driver/Libraries/XMCLib/inc\xmc_usic.h ****  * @param event Bit mask of the channel events to be disabled. Use @ref XMC_USIC_CH_EVENT_t for the
1123:C:/Users/Mafish/Documents/GitHub/MAB_Driver/Libraries/XMCLib/inc\xmc_usic.h ****  * 				\b Range: @ref XMC_USIC_CH_EVENT_RECEIVE_START, @ref XMC_USIC_CH_EVENT_DATA_LOST etc. Multip
1124:C:/Users/Mafish/Documents/GitHub/MAB_Driver/Libraries/XMCLib/inc\xmc_usic.h ****  * 				can be combined using \a OR operation.
1125:C:/Users/Mafish/Documents/GitHub/MAB_Driver/Libraries/XMCLib/inc\xmc_usic.h ****  * @return None
1126:C:/Users/Mafish/Documents/GitHub/MAB_Driver/Libraries/XMCLib/inc\xmc_usic.h ****  *
1127:C:/Users/Mafish/Documents/GitHub/MAB_Driver/Libraries/XMCLib/inc\xmc_usic.h ****  * \par<b>Description</b><br>
1128:C:/Users/Mafish/Documents/GitHub/MAB_Driver/Libraries/XMCLib/inc\xmc_usic.h ****  * Disable the channel interrupt events. \n\n
1129:C:/Users/Mafish/Documents/GitHub/MAB_Driver/Libraries/XMCLib/inc\xmc_usic.h ****  * Multiple events can be combined using the bitwise OR operation and configured in one function ca
1130:C:/Users/Mafish/Documents/GitHub/MAB_Driver/Libraries/XMCLib/inc\xmc_usic.h ****  * XMC_USIC_CH_EVENT_t enumerates multiple protocol event bitmasks. These enumerations can be used 
1131:C:/Users/Mafish/Documents/GitHub/MAB_Driver/Libraries/XMCLib/inc\xmc_usic.h ****  *
1132:C:/Users/Mafish/Documents/GitHub/MAB_Driver/Libraries/XMCLib/inc\xmc_usic.h ****  * \par<b>Related APIs:</b><BR>
1133:C:/Users/Mafish/Documents/GitHub/MAB_Driver/Libraries/XMCLib/inc\xmc_usic.h ****  * XMC_USIC_CH_EnableEvent(), XMC_USIC_CH_SetInterruptNodePointer() \n\n\n
1134:C:/Users/Mafish/Documents/GitHub/MAB_Driver/Libraries/XMCLib/inc\xmc_usic.h **** */
1135:C:/Users/Mafish/Documents/GitHub/MAB_Driver/Libraries/XMCLib/inc\xmc_usic.h **** __STATIC_INLINE void XMC_USIC_CH_DisableEvent(XMC_USIC_CH_t *const channel, const uint32_t event)
1136:C:/Users/Mafish/Documents/GitHub/MAB_Driver/Libraries/XMCLib/inc\xmc_usic.h **** {
1137:C:/Users/Mafish/Documents/GitHub/MAB_Driver/Libraries/XMCLib/inc\xmc_usic.h ****   channel->CCR &= (uint32_t)~event;
1138:C:/Users/Mafish/Documents/GitHub/MAB_Driver/Libraries/XMCLib/inc\xmc_usic.h **** }
1139:C:/Users/Mafish/Documents/GitHub/MAB_Driver/Libraries/XMCLib/inc\xmc_usic.h **** 
1140:C:/Users/Mafish/Documents/GitHub/MAB_Driver/Libraries/XMCLib/inc\xmc_usic.h **** /**
1141:C:/Users/Mafish/Documents/GitHub/MAB_Driver/Libraries/XMCLib/inc\xmc_usic.h ****  * @param channel Pointer to USIC channel handler of type @ref XMC_USIC_CH_t \n
1142:C:/Users/Mafish/Documents/GitHub/MAB_Driver/Libraries/XMCLib/inc\xmc_usic.h ****  * 				  \b Range: @ref XMC_USIC0_CH0, @ref XMC_USIC0_CH1 to @ref XMC_USIC2_CH1 based on device sup
1143:C:/Users/Mafish/Documents/GitHub/MAB_Driver/Libraries/XMCLib/inc\xmc_usic.h ****  * @param  interrupt_node Interrupt node pointer to be configured. \n
1144:C:/Users/Mafish/Documents/GitHub/MAB_Driver/Libraries/XMCLib/inc\xmc_usic.h ****  * 						  \b Range: @ref XMC_USIC_CH_INTERRUPT_NODE_POINTER_TRANSMIT_SHIFT,
1145:C:/Users/Mafish/Documents/GitHub/MAB_Driver/Libraries/XMCLib/inc\xmc_usic.h ****  * 						  			@ref XMC_USIC_CH_INTERRUPT_NODE_POINTER_TRANSMIT_BUFFER etc.
1146:C:/Users/Mafish/Documents/GitHub/MAB_Driver/Libraries/XMCLib/inc\xmc_usic.h ****  * @param service_request Service request number.\n
1147:C:/Users/Mafish/Documents/GitHub/MAB_Driver/Libraries/XMCLib/inc\xmc_usic.h ****  * 						  \b Range: 0 to 5.
1148:C:/Users/Mafish/Documents/GitHub/MAB_Driver/Libraries/XMCLib/inc\xmc_usic.h ****  * @return None
1149:C:/Users/Mafish/Documents/GitHub/MAB_Driver/Libraries/XMCLib/inc\xmc_usic.h ****  *
1150:C:/Users/Mafish/Documents/GitHub/MAB_Driver/Libraries/XMCLib/inc\xmc_usic.h ****  * \par<b>Description</b><br>
1151:C:/Users/Mafish/Documents/GitHub/MAB_Driver/Libraries/XMCLib/inc\xmc_usic.h ****  * Sets the interrupt node for USIC channel events. \n\n
1152:C:/Users/Mafish/Documents/GitHub/MAB_Driver/Libraries/XMCLib/inc\xmc_usic.h ****  * For an event to generate interrupt, node pointer should be configured with service request(SR0, 
1153:C:/Users/Mafish/Documents/GitHub/MAB_Driver/Libraries/XMCLib/inc\xmc_usic.h ****  * The NVIC node gets linked to the interrupt event by doing so.<br>
1154:C:/Users/Mafish/Documents/GitHub/MAB_Driver/Libraries/XMCLib/inc\xmc_usic.h ****  * Note: NVIC node should be separately enabled to generate the interrupt.
1155:C:/Users/Mafish/Documents/GitHub/MAB_Driver/Libraries/XMCLib/inc\xmc_usic.h ****  *
1156:C:/Users/Mafish/Documents/GitHub/MAB_Driver/Libraries/XMCLib/inc\xmc_usic.h ****  * \par<b>Related APIs:</b><BR>
1157:C:/Users/Mafish/Documents/GitHub/MAB_Driver/Libraries/XMCLib/inc\xmc_usic.h ****  * XMC_USIC_CH_EnableEvent() \n\n\n
1158:C:/Users/Mafish/Documents/GitHub/MAB_Driver/Libraries/XMCLib/inc\xmc_usic.h ****  */
1159:C:/Users/Mafish/Documents/GitHub/MAB_Driver/Libraries/XMCLib/inc\xmc_usic.h **** void XMC_USIC_CH_SetInterruptNodePointer(XMC_USIC_CH_t *const channel,
1160:C:/Users/Mafish/Documents/GitHub/MAB_Driver/Libraries/XMCLib/inc\xmc_usic.h ****                                          const XMC_USIC_CH_INTERRUPT_NODE_POINTER_t interrupt_node,
1161:C:/Users/Mafish/Documents/GitHub/MAB_Driver/Libraries/XMCLib/inc\xmc_usic.h ****                                          const uint32_t service_request);
1162:C:/Users/Mafish/Documents/GitHub/MAB_Driver/Libraries/XMCLib/inc\xmc_usic.h **** 
1163:C:/Users/Mafish/Documents/GitHub/MAB_Driver/Libraries/XMCLib/inc\xmc_usic.h **** /**
1164:C:/Users/Mafish/Documents/GitHub/MAB_Driver/Libraries/XMCLib/inc\xmc_usic.h ****  * @param  channel Pointer to USIC channel handler of type @ref XMC_USIC_CH_t \n
1165:C:/Users/Mafish/Documents/GitHub/MAB_Driver/Libraries/XMCLib/inc\xmc_usic.h ****  * 				   \b Range: @ref XMC_USIC0_CH0, @ref XMC_USIC0_CH1 to @ref XMC_USIC2_CH1 based on device su
1166:C:/Users/Mafish/Documents/GitHub/MAB_Driver/Libraries/XMCLib/inc\xmc_usic.h ****  * @return Stataus @ref XMC_USIC_CH_TBUF_STATUS_IDLE if transmit buffer is free,
1167:C:/Users/Mafish/Documents/GitHub/MAB_Driver/Libraries/XMCLib/inc\xmc_usic.h ****  *                 @ref XMC_USIC_CH_TBUF_STATUS_BUSY if transmit buffer is busy.
1168:C:/Users/Mafish/Documents/GitHub/MAB_Driver/Libraries/XMCLib/inc\xmc_usic.h ****  *
1169:C:/Users/Mafish/Documents/GitHub/MAB_Driver/Libraries/XMCLib/inc\xmc_usic.h ****  * \par<b>Description</b><br>
1170:C:/Users/Mafish/Documents/GitHub/MAB_Driver/Libraries/XMCLib/inc\xmc_usic.h ****  * Gets transmit buffer status. \n\n
1171:C:/Users/Mafish/Documents/GitHub/MAB_Driver/Libraries/XMCLib/inc\xmc_usic.h ****  * Status indicates whether the transmit buffer is free, or busy transmitting data.
1172:C:/Users/Mafish/Documents/GitHub/MAB_Driver/Libraries/XMCLib/inc\xmc_usic.h ****  * The status depends on the value of TDV flag in TCSR register.
1173:C:/Users/Mafish/Documents/GitHub/MAB_Driver/Libraries/XMCLib/inc\xmc_usic.h ****  * This status can be used while transmitting data. Transmit data when the transmit buffer
1174:C:/Users/Mafish/Documents/GitHub/MAB_Driver/Libraries/XMCLib/inc\xmc_usic.h ****  * status is @ref XMC_USIC_CH_TBUF_STATUS_IDLE.
1175:C:/Users/Mafish/Documents/GitHub/MAB_Driver/Libraries/XMCLib/inc\xmc_usic.h ****  *
1176:C:/Users/Mafish/Documents/GitHub/MAB_Driver/Libraries/XMCLib/inc\xmc_usic.h ****  * \par<b>Related APIs:</b><BR>
1177:C:/Users/Mafish/Documents/GitHub/MAB_Driver/Libraries/XMCLib/inc\xmc_usic.h ****  * XMC_USIC_CH_SetDataOutputMode() \n\n\n
1178:C:/Users/Mafish/Documents/GitHub/MAB_Driver/Libraries/XMCLib/inc\xmc_usic.h ****  */
1179:C:/Users/Mafish/Documents/GitHub/MAB_Driver/Libraries/XMCLib/inc\xmc_usic.h **** __STATIC_INLINE XMC_USIC_CH_TBUF_STATUS_t XMC_USIC_CH_GetTransmitBufferStatus(XMC_USIC_CH_t *const 
1180:C:/Users/Mafish/Documents/GitHub/MAB_Driver/Libraries/XMCLib/inc\xmc_usic.h **** {
1181:C:/Users/Mafish/Documents/GitHub/MAB_Driver/Libraries/XMCLib/inc\xmc_usic.h ****   return (XMC_USIC_CH_TBUF_STATUS_t)(channel->TCSR & USIC_CH_TCSR_TDV_Msk);
1182:C:/Users/Mafish/Documents/GitHub/MAB_Driver/Libraries/XMCLib/inc\xmc_usic.h **** }
1183:C:/Users/Mafish/Documents/GitHub/MAB_Driver/Libraries/XMCLib/inc\xmc_usic.h **** 
1184:C:/Users/Mafish/Documents/GitHub/MAB_Driver/Libraries/XMCLib/inc\xmc_usic.h **** /**
1185:C:/Users/Mafish/Documents/GitHub/MAB_Driver/Libraries/XMCLib/inc\xmc_usic.h ****  * @brief API to get receive buffer status
1186:C:/Users/Mafish/Documents/GitHub/MAB_Driver/Libraries/XMCLib/inc\xmc_usic.h ****  * @param  channel Pointer to USIC channel handler of type @ref XMC_USIC_CH_t \n
1187:C:/Users/Mafish/Documents/GitHub/MAB_Driver/Libraries/XMCLib/inc\xmc_usic.h ****  * 				   \b Range: @ref XMC_USIC0_CH0, @ref XMC_USIC0_CH1 to @ref XMC_USIC2_CH1 based on device su
1188:C:/Users/Mafish/Documents/GitHub/MAB_Driver/Libraries/XMCLib/inc\xmc_usic.h ****  * @return Status of data validity check for RBUF0 and RBUF1. \n
1189:C:/Users/Mafish/Documents/GitHub/MAB_Driver/Libraries/XMCLib/inc\xmc_usic.h ****  * 		   Returned value should be masked with RDV0 and RDV1 bits to know the status. \n
1190:C:/Users/Mafish/Documents/GitHub/MAB_Driver/Libraries/XMCLib/inc\xmc_usic.h ****  * 		   \b Range: @ref XMC_USIC_CH_RBUF_STATUS_DATA_VALID0, @ref XMC_USIC_CH_RBUF_STATUS_DATA_VALID
1191:C:/Users/Mafish/Documents/GitHub/MAB_Driver/Libraries/XMCLib/inc\xmc_usic.h ****  *
1192:C:/Users/Mafish/Documents/GitHub/MAB_Driver/Libraries/XMCLib/inc\xmc_usic.h ****  * \par<b>Description</b><br>
1193:C:/Users/Mafish/Documents/GitHub/MAB_Driver/Libraries/XMCLib/inc\xmc_usic.h ****  * Checks if RBUF0 and RBUF1 have valid unread data. \n\n
1194:C:/Users/Mafish/Documents/GitHub/MAB_Driver/Libraries/XMCLib/inc\xmc_usic.h ****  * It checks the bits RDV0 and RDV1 of the RBUFSR register.
1195:C:/Users/Mafish/Documents/GitHub/MAB_Driver/Libraries/XMCLib/inc\xmc_usic.h ****  * Returns the value of RBUFSR masked with bitmasks of RDV0 and RDV1.
1196:C:/Users/Mafish/Documents/GitHub/MAB_Driver/Libraries/XMCLib/inc\xmc_usic.h ****  * It can be used to decide whether 2bytes has to be read from RBUF or 1 byte. 
1197:C:/Users/Mafish/Documents/GitHub/MAB_Driver/Libraries/XMCLib/inc\xmc_usic.h ****  * If both bitmasks XMC_USIC_CH_RBUF_STATUS_DATA_VALID0 and XMC_USIC_CH_RBUF_STATUS_DATA_VALID1
1198:C:/Users/Mafish/Documents/GitHub/MAB_Driver/Libraries/XMCLib/inc\xmc_usic.h ****  * are set, then 2 bytes can be read from RBUF. If only either of them is set, then only one byte
1199:C:/Users/Mafish/Documents/GitHub/MAB_Driver/Libraries/XMCLib/inc\xmc_usic.h ****  * can be read from RBUF.
1200:C:/Users/Mafish/Documents/GitHub/MAB_Driver/Libraries/XMCLib/inc\xmc_usic.h ****  * \par<b>Related APIs:</b><BR>
1201:C:/Users/Mafish/Documents/GitHub/MAB_Driver/Libraries/XMCLib/inc\xmc_usic.h ****  * XMC_USIC_CH_GetTransmitBufferStatus() \n\n\n
1202:C:/Users/Mafish/Documents/GitHub/MAB_Driver/Libraries/XMCLib/inc\xmc_usic.h ****  */
1203:C:/Users/Mafish/Documents/GitHub/MAB_Driver/Libraries/XMCLib/inc\xmc_usic.h **** __STATIC_INLINE uint32_t XMC_USIC_CH_GetReceiveBufferStatus(XMC_USIC_CH_t *const channel)
1204:C:/Users/Mafish/Documents/GitHub/MAB_Driver/Libraries/XMCLib/inc\xmc_usic.h **** {
1205:C:/Users/Mafish/Documents/GitHub/MAB_Driver/Libraries/XMCLib/inc\xmc_usic.h ****   return ((uint32_t) (channel->RBUFSR & (USIC_CH_RBUFSR_RDV0_Msk | USIC_CH_RBUFSR_RDV1_Msk)));
1206:C:/Users/Mafish/Documents/GitHub/MAB_Driver/Libraries/XMCLib/inc\xmc_usic.h **** }
1207:C:/Users/Mafish/Documents/GitHub/MAB_Driver/Libraries/XMCLib/inc\xmc_usic.h **** 
1208:C:/Users/Mafish/Documents/GitHub/MAB_Driver/Libraries/XMCLib/inc\xmc_usic.h **** 
1209:C:/Users/Mafish/Documents/GitHub/MAB_Driver/Libraries/XMCLib/inc\xmc_usic.h **** /**
1210:C:/Users/Mafish/Documents/GitHub/MAB_Driver/Libraries/XMCLib/inc\xmc_usic.h ****  * @param  channel Pointer to USIC channel handler of type @ref XMC_USIC_CH_t \n
1211:C:/Users/Mafish/Documents/GitHub/MAB_Driver/Libraries/XMCLib/inc\xmc_usic.h ****  * 				   \b Range: @ref XMC_USIC0_CH0, @ref XMC_USIC0_CH1 to @ref XMC_USIC2_CH1 based on device su
1212:C:/Users/Mafish/Documents/GitHub/MAB_Driver/Libraries/XMCLib/inc\xmc_usic.h ****  * @param  start_transmision_mode Transmission mode to be enabled. \n
1213:C:/Users/Mafish/Documents/GitHub/MAB_Driver/Libraries/XMCLib/inc\xmc_usic.h ****  * 								\b Range: @ref XMC_USIC_CH_START_TRANSMISION_DISABLED,
1214:C:/Users/Mafish/Documents/GitHub/MAB_Driver/Libraries/XMCLib/inc\xmc_usic.h ****  * 								@ref XMC_USIC_CH_START_TRANSMISION_ON_TDV, @ref XMC_USIC_CH_START_TRANSMISION_ON_TDV_DX2
1215:C:/Users/Mafish/Documents/GitHub/MAB_Driver/Libraries/XMCLib/inc\xmc_usic.h ****  * 								@ref XMC_USIC_CH_START_TRANSMISION_ON_TDV_DX2S_1
1216:C:/Users/Mafish/Documents/GitHub/MAB_Driver/Libraries/XMCLib/inc\xmc_usic.h ****  *                              
1217:C:/Users/Mafish/Documents/GitHub/MAB_Driver/Libraries/XMCLib/inc\xmc_usic.h ****  * @return None
1218:C:/Users/Mafish/Documents/GitHub/MAB_Driver/Libraries/XMCLib/inc\xmc_usic.h ****  *
1219:C:/Users/Mafish/Documents/GitHub/MAB_Driver/Libraries/XMCLib/inc\xmc_usic.h ****  * \par<b>Description</b><br>
1220:C:/Users/Mafish/Documents/GitHub/MAB_Driver/Libraries/XMCLib/inc\xmc_usic.h ****  * Configures data transmission. \n\n
1221:C:/Users/Mafish/Documents/GitHub/MAB_Driver/Libraries/XMCLib/inc\xmc_usic.h ****  * The configuration affects the data shifted on the DOUT0 pin.
1222:C:/Users/Mafish/Documents/GitHub/MAB_Driver/Libraries/XMCLib/inc\xmc_usic.h ****  * 
1223:C:/Users/Mafish/Documents/GitHub/MAB_Driver/Libraries/XMCLib/inc\xmc_usic.h ****  * \par<b>Related APIs:</b><BR>
1224:C:/Users/Mafish/Documents/GitHub/MAB_Driver/Libraries/XMCLib/inc\xmc_usic.h ****  * XMC_USIC_CH_GetTransmitBufferStatus(), XMC_USIC_CH_SetDataOutputMode() \n\n\n
1225:C:/Users/Mafish/Documents/GitHub/MAB_Driver/Libraries/XMCLib/inc\xmc_usic.h ****  */
1226:C:/Users/Mafish/Documents/GitHub/MAB_Driver/Libraries/XMCLib/inc\xmc_usic.h **** __STATIC_INLINE void XMC_USIC_CH_SetStartTransmisionMode(XMC_USIC_CH_t *const channel,
1227:C:/Users/Mafish/Documents/GitHub/MAB_Driver/Libraries/XMCLib/inc\xmc_usic.h ****                                                          const XMC_USIC_CH_START_TRANSMISION_MODE_t
1228:C:/Users/Mafish/Documents/GitHub/MAB_Driver/Libraries/XMCLib/inc\xmc_usic.h **** {
1229:C:/Users/Mafish/Documents/GitHub/MAB_Driver/Libraries/XMCLib/inc\xmc_usic.h ****   channel->TCSR = (uint32_t)(channel->TCSR & (~USIC_CH_TCSR_TDEN_Msk)) | (uint32_t)start_transmisio
1230:C:/Users/Mafish/Documents/GitHub/MAB_Driver/Libraries/XMCLib/inc\xmc_usic.h **** }
1231:C:/Users/Mafish/Documents/GitHub/MAB_Driver/Libraries/XMCLib/inc\xmc_usic.h **** 
1232:C:/Users/Mafish/Documents/GitHub/MAB_Driver/Libraries/XMCLib/inc\xmc_usic.h **** 
1233:C:/Users/Mafish/Documents/GitHub/MAB_Driver/Libraries/XMCLib/inc\xmc_usic.h **** /**
1234:C:/Users/Mafish/Documents/GitHub/MAB_Driver/Libraries/XMCLib/inc\xmc_usic.h ****  * @param  channel Pointer to USIC channel handler of type @ref XMC_USIC_CH_t \n
1235:C:/Users/Mafish/Documents/GitHub/MAB_Driver/Libraries/XMCLib/inc\xmc_usic.h ****  * 				   \b Range: @ref XMC_USIC0_CH0, @ref XMC_USIC0_CH1 to @ref XMC_USIC2_CH1 based on device su
1236:C:/Users/Mafish/Documents/GitHub/MAB_Driver/Libraries/XMCLib/inc\xmc_usic.h ****  * @param  data_output_mode  Data output mode. \n
1237:C:/Users/Mafish/Documents/GitHub/MAB_Driver/Libraries/XMCLib/inc\xmc_usic.h ****  * 			\b Range: @ref XMC_USIC_CH_DATA_OUTPUT_MODE_NORMAL, @ref XMC_USIC_CH_DATA_OUTPUT_MODE_INVERTE
1238:C:/Users/Mafish/Documents/GitHub/MAB_Driver/Libraries/XMCLib/inc\xmc_usic.h ****  * @return None
1239:C:/Users/Mafish/Documents/GitHub/MAB_Driver/Libraries/XMCLib/inc\xmc_usic.h ****  *
1240:C:/Users/Mafish/Documents/GitHub/MAB_Driver/Libraries/XMCLib/inc\xmc_usic.h ****  * \par<b>Description</b><br>
1241:C:/Users/Mafish/Documents/GitHub/MAB_Driver/Libraries/XMCLib/inc\xmc_usic.h ****  * Configures the mode for data output. \n\n
1242:C:/Users/Mafish/Documents/GitHub/MAB_Driver/Libraries/XMCLib/inc\xmc_usic.h ****  * USIC channel can be configured to shift inverted data or direct data based on the input to the A
1243:C:/Users/Mafish/Documents/GitHub/MAB_Driver/Libraries/XMCLib/inc\xmc_usic.h ****  * 
1244:C:/Users/Mafish/Documents/GitHub/MAB_Driver/Libraries/XMCLib/inc\xmc_usic.h ****  * \par<b>Related APIs:</b><BR>
1245:C:/Users/Mafish/Documents/GitHub/MAB_Driver/Libraries/XMCLib/inc\xmc_usic.h ****  * XMC_USIC_CH_SetStartTransmisionMode() \n\n\n
1246:C:/Users/Mafish/Documents/GitHub/MAB_Driver/Libraries/XMCLib/inc\xmc_usic.h ****  */
1247:C:/Users/Mafish/Documents/GitHub/MAB_Driver/Libraries/XMCLib/inc\xmc_usic.h **** __STATIC_INLINE void XMC_USIC_CH_SetDataOutputMode(XMC_USIC_CH_t *const channel,
1248:C:/Users/Mafish/Documents/GitHub/MAB_Driver/Libraries/XMCLib/inc\xmc_usic.h ****                                                    const XMC_USIC_CH_DATA_OUTPUT_MODE_t data_output
1249:C:/Users/Mafish/Documents/GitHub/MAB_Driver/Libraries/XMCLib/inc\xmc_usic.h **** {
1250:C:/Users/Mafish/Documents/GitHub/MAB_Driver/Libraries/XMCLib/inc\xmc_usic.h ****   channel->SCTR = (uint32_t)(channel->SCTR & (~USIC_CH_SCTR_DOCFG_Msk)) | (uint32_t)data_output_mod
1251:C:/Users/Mafish/Documents/GitHub/MAB_Driver/Libraries/XMCLib/inc\xmc_usic.h **** }
1252:C:/Users/Mafish/Documents/GitHub/MAB_Driver/Libraries/XMCLib/inc\xmc_usic.h **** 
1253:C:/Users/Mafish/Documents/GitHub/MAB_Driver/Libraries/XMCLib/inc\xmc_usic.h **** /**
1254:C:/Users/Mafish/Documents/GitHub/MAB_Driver/Libraries/XMCLib/inc\xmc_usic.h ****  * @param  channel Pointer to USIC channel handler of type @ref XMC_USIC_CH_t \n
1255:C:/Users/Mafish/Documents/GitHub/MAB_Driver/Libraries/XMCLib/inc\xmc_usic.h ****  * 				   \b Range: @ref XMC_USIC0_CH0, @ref XMC_USIC0_CH1 to @ref XMC_USIC2_CH1 based on device su
1256:C:/Users/Mafish/Documents/GitHub/MAB_Driver/Libraries/XMCLib/inc\xmc_usic.h ****  * @return None
1257:C:/Users/Mafish/Documents/GitHub/MAB_Driver/Libraries/XMCLib/inc\xmc_usic.h ****  *
1258:C:/Users/Mafish/Documents/GitHub/MAB_Driver/Libraries/XMCLib/inc\xmc_usic.h ****  * \par<b>Description</b><br>
1259:C:/Users/Mafish/Documents/GitHub/MAB_Driver/Libraries/XMCLib/inc\xmc_usic.h ****  * Enables automatic update of frame length. \n\n
1260:C:/Users/Mafish/Documents/GitHub/MAB_Driver/Libraries/XMCLib/inc\xmc_usic.h ****  * When the automatic update of frame length is enabled, frame length is configured based on the 
1261:C:/Users/Mafish/Documents/GitHub/MAB_Driver/Libraries/XMCLib/inc\xmc_usic.h ****  * index of the TBUF[]/IN[] register array. When the data is written to TBUF[x], frame length is co
1262:C:/Users/Mafish/Documents/GitHub/MAB_Driver/Libraries/XMCLib/inc\xmc_usic.h ****  * with the mask value of \a x at the last 5 bit positions. Same logic is applicable if data is wri
1263:C:/Users/Mafish/Documents/GitHub/MAB_Driver/Libraries/XMCLib/inc\xmc_usic.h ****  * IN[x] register.
1264:C:/Users/Mafish/Documents/GitHub/MAB_Driver/Libraries/XMCLib/inc\xmc_usic.h ****  *
1265:C:/Users/Mafish/Documents/GitHub/MAB_Driver/Libraries/XMCLib/inc\xmc_usic.h ****  * \par<b>Related APIs:</b><BR>
1266:C:/Users/Mafish/Documents/GitHub/MAB_Driver/Libraries/XMCLib/inc\xmc_usic.h ****  * XMC_USIC_CH_DisableFrameLengthControl(), XMC_USIC_CH_TXFIFO_PutDataFLEMode() \n\n\n
1267:C:/Users/Mafish/Documents/GitHub/MAB_Driver/Libraries/XMCLib/inc\xmc_usic.h ****  */
1268:C:/Users/Mafish/Documents/GitHub/MAB_Driver/Libraries/XMCLib/inc\xmc_usic.h **** __STATIC_INLINE void XMC_USIC_CH_EnableFrameLengthControl(XMC_USIC_CH_t *const channel)
1269:C:/Users/Mafish/Documents/GitHub/MAB_Driver/Libraries/XMCLib/inc\xmc_usic.h **** {
1270:C:/Users/Mafish/Documents/GitHub/MAB_Driver/Libraries/XMCLib/inc\xmc_usic.h ****   channel->TCSR = (uint32_t)(channel->TCSR & (~(USIC_CH_TCSR_WLEMD_Msk |
1271:C:/Users/Mafish/Documents/GitHub/MAB_Driver/Libraries/XMCLib/inc\xmc_usic.h ****                                          USIC_CH_TCSR_SELMD_Msk |
1272:C:/Users/Mafish/Documents/GitHub/MAB_Driver/Libraries/XMCLib/inc\xmc_usic.h ****                                          USIC_CH_TCSR_WAMD_Msk |
1273:C:/Users/Mafish/Documents/GitHub/MAB_Driver/Libraries/XMCLib/inc\xmc_usic.h ****                                          USIC_CH_TCSR_HPCMD_Msk))) |
1274:C:/Users/Mafish/Documents/GitHub/MAB_Driver/Libraries/XMCLib/inc\xmc_usic.h ****                                          (uint32_t)USIC_CH_TCSR_FLEMD_Msk;
1275:C:/Users/Mafish/Documents/GitHub/MAB_Driver/Libraries/XMCLib/inc\xmc_usic.h **** }
1276:C:/Users/Mafish/Documents/GitHub/MAB_Driver/Libraries/XMCLib/inc\xmc_usic.h **** 
1277:C:/Users/Mafish/Documents/GitHub/MAB_Driver/Libraries/XMCLib/inc\xmc_usic.h **** /**
1278:C:/Users/Mafish/Documents/GitHub/MAB_Driver/Libraries/XMCLib/inc\xmc_usic.h ****  * @param  channel Pointer to USIC channel handler of type @ref XMC_USIC_CH_t \n
1279:C:/Users/Mafish/Documents/GitHub/MAB_Driver/Libraries/XMCLib/inc\xmc_usic.h ****  * 				   \b Range: @ref XMC_USIC0_CH0, @ref XMC_USIC0_CH1 to @ref XMC_USIC2_CH1 based on device su
1280:C:/Users/Mafish/Documents/GitHub/MAB_Driver/Libraries/XMCLib/inc\xmc_usic.h ****  * @return None
1281:C:/Users/Mafish/Documents/GitHub/MAB_Driver/Libraries/XMCLib/inc\xmc_usic.h ****  *
1282:C:/Users/Mafish/Documents/GitHub/MAB_Driver/Libraries/XMCLib/inc\xmc_usic.h ****  * \par<b>Description</b><br>
1283:C:/Users/Mafish/Documents/GitHub/MAB_Driver/Libraries/XMCLib/inc\xmc_usic.h ****  * Disables automatic update of frame length. \n\n
1284:C:/Users/Mafish/Documents/GitHub/MAB_Driver/Libraries/XMCLib/inc\xmc_usic.h ****  * When automatic update of frame length is disabled, frame length has to configured explicitly.
1285:C:/Users/Mafish/Documents/GitHub/MAB_Driver/Libraries/XMCLib/inc\xmc_usic.h ****  * Frame length remains fixed until it is changed again.
1286:C:/Users/Mafish/Documents/GitHub/MAB_Driver/Libraries/XMCLib/inc\xmc_usic.h ****  *
1287:C:/Users/Mafish/Documents/GitHub/MAB_Driver/Libraries/XMCLib/inc\xmc_usic.h ****  * \par<b>Related APIs:</b><BR>
1288:C:/Users/Mafish/Documents/GitHub/MAB_Driver/Libraries/XMCLib/inc\xmc_usic.h ****  * XMC_USIC_CH_DisableFrameLengthControl(), XMC_USIC_CH_SetFrameLength() \n\n\n
1289:C:/Users/Mafish/Documents/GitHub/MAB_Driver/Libraries/XMCLib/inc\xmc_usic.h ****  */
1290:C:/Users/Mafish/Documents/GitHub/MAB_Driver/Libraries/XMCLib/inc\xmc_usic.h **** __STATIC_INLINE void XMC_USIC_CH_DisableFrameLengthControl(XMC_USIC_CH_t *const channel)
1291:C:/Users/Mafish/Documents/GitHub/MAB_Driver/Libraries/XMCLib/inc\xmc_usic.h **** {
1292:C:/Users/Mafish/Documents/GitHub/MAB_Driver/Libraries/XMCLib/inc\xmc_usic.h ****   channel->TCSR &= (uint32_t)~USIC_CH_TCSR_FLEMD_Msk;
1293:C:/Users/Mafish/Documents/GitHub/MAB_Driver/Libraries/XMCLib/inc\xmc_usic.h **** }
1294:C:/Users/Mafish/Documents/GitHub/MAB_Driver/Libraries/XMCLib/inc\xmc_usic.h **** 
1295:C:/Users/Mafish/Documents/GitHub/MAB_Driver/Libraries/XMCLib/inc\xmc_usic.h **** /**
1296:C:/Users/Mafish/Documents/GitHub/MAB_Driver/Libraries/XMCLib/inc\xmc_usic.h ****  * @param  channel Pointer to USIC channel handler of type @ref XMC_USIC_CH_t \n
1297:C:/Users/Mafish/Documents/GitHub/MAB_Driver/Libraries/XMCLib/inc\xmc_usic.h ****  * 				   \b Range: @ref XMC_USIC0_CH0, @ref XMC_USIC0_CH1 to @ref XMC_USIC2_CH1 based on device su
1298:C:/Users/Mafish/Documents/GitHub/MAB_Driver/Libraries/XMCLib/inc\xmc_usic.h ****  * @return None
1299:C:/Users/Mafish/Documents/GitHub/MAB_Driver/Libraries/XMCLib/inc\xmc_usic.h ****  *
1300:C:/Users/Mafish/Documents/GitHub/MAB_Driver/Libraries/XMCLib/inc\xmc_usic.h ****  * \par<b>Description</b><br>
1301:C:/Users/Mafish/Documents/GitHub/MAB_Driver/Libraries/XMCLib/inc\xmc_usic.h ****  * Bit TCSR.TE is set if DX2T becomes active while TDV = 1. \n\n
1302:C:/Users/Mafish/Documents/GitHub/MAB_Driver/Libraries/XMCLib/inc\xmc_usic.h ****  * Enables the transfer trigger unit to set bit TCSR.TE if the trigger signal DX2T becomes active
1303:C:/Users/Mafish/Documents/GitHub/MAB_Driver/Libraries/XMCLib/inc\xmc_usic.h ****  * for event driven transfer starts.
1304:C:/Users/Mafish/Documents/GitHub/MAB_Driver/Libraries/XMCLib/inc\xmc_usic.h ****  *
1305:C:/Users/Mafish/Documents/GitHub/MAB_Driver/Libraries/XMCLib/inc\xmc_usic.h ****  * \par<b>Related APIs:</b><BR>
1306:C:/Users/Mafish/Documents/GitHub/MAB_Driver/Libraries/XMCLib/inc\xmc_usic.h ****  * XMC_USIC_CH_DisableTBUFDataValidTrigger()\n\n\n
1307:C:/Users/Mafish/Documents/GitHub/MAB_Driver/Libraries/XMCLib/inc\xmc_usic.h ****  */
1308:C:/Users/Mafish/Documents/GitHub/MAB_Driver/Libraries/XMCLib/inc\xmc_usic.h **** __STATIC_INLINE void XMC_USIC_CH_EnableTBUFDataValidTrigger(XMC_USIC_CH_t *const channel)
1309:C:/Users/Mafish/Documents/GitHub/MAB_Driver/Libraries/XMCLib/inc\xmc_usic.h **** {
1310:C:/Users/Mafish/Documents/GitHub/MAB_Driver/Libraries/XMCLib/inc\xmc_usic.h ****   channel->TCSR |= (uint32_t)USIC_CH_TCSR_TDVTR_Msk;
1311:C:/Users/Mafish/Documents/GitHub/MAB_Driver/Libraries/XMCLib/inc\xmc_usic.h **** }
1312:C:/Users/Mafish/Documents/GitHub/MAB_Driver/Libraries/XMCLib/inc\xmc_usic.h **** 
1313:C:/Users/Mafish/Documents/GitHub/MAB_Driver/Libraries/XMCLib/inc\xmc_usic.h **** /**
1314:C:/Users/Mafish/Documents/GitHub/MAB_Driver/Libraries/XMCLib/inc\xmc_usic.h ****  * @param  channel Pointer to USIC channel handler of type @ref XMC_USIC_CH_t \n
1315:C:/Users/Mafish/Documents/GitHub/MAB_Driver/Libraries/XMCLib/inc\xmc_usic.h ****  * 				   \b Range: @ref XMC_USIC0_CH0, @ref XMC_USIC0_CH1 to @ref XMC_USIC2_CH1 based on device su
1316:C:/Users/Mafish/Documents/GitHub/MAB_Driver/Libraries/XMCLib/inc\xmc_usic.h ****  * @return None
1317:C:/Users/Mafish/Documents/GitHub/MAB_Driver/Libraries/XMCLib/inc\xmc_usic.h ****  *
1318:C:/Users/Mafish/Documents/GitHub/MAB_Driver/Libraries/XMCLib/inc\xmc_usic.h ****  * \par<b>Description</b><br>
1319:C:/Users/Mafish/Documents/GitHub/MAB_Driver/Libraries/XMCLib/inc\xmc_usic.h ****  * Disables the trigger of TDV depending on DX2T signal. \n\n
1320:C:/Users/Mafish/Documents/GitHub/MAB_Driver/Libraries/XMCLib/inc\xmc_usic.h ****  * Bit TCSR.TE is permanently set.
1321:C:/Users/Mafish/Documents/GitHub/MAB_Driver/Libraries/XMCLib/inc\xmc_usic.h ****  *
1322:C:/Users/Mafish/Documents/GitHub/MAB_Driver/Libraries/XMCLib/inc\xmc_usic.h ****  * \par<b>Related APIs:</b><BR>
1323:C:/Users/Mafish/Documents/GitHub/MAB_Driver/Libraries/XMCLib/inc\xmc_usic.h ****  * XMC_USIC_CH_EnableTBUFDataValidTrigger() \n\n\n
1324:C:/Users/Mafish/Documents/GitHub/MAB_Driver/Libraries/XMCLib/inc\xmc_usic.h ****  */
1325:C:/Users/Mafish/Documents/GitHub/MAB_Driver/Libraries/XMCLib/inc\xmc_usic.h **** __STATIC_INLINE void XMC_USIC_CH_DisableTBUFDataValidTrigger(XMC_USIC_CH_t *const channel)
1326:C:/Users/Mafish/Documents/GitHub/MAB_Driver/Libraries/XMCLib/inc\xmc_usic.h **** {
1327:C:/Users/Mafish/Documents/GitHub/MAB_Driver/Libraries/XMCLib/inc\xmc_usic.h ****   channel->TCSR &= (uint32_t)~USIC_CH_TCSR_TDVTR_Msk;
1328:C:/Users/Mafish/Documents/GitHub/MAB_Driver/Libraries/XMCLib/inc\xmc_usic.h **** }
1329:C:/Users/Mafish/Documents/GitHub/MAB_Driver/Libraries/XMCLib/inc\xmc_usic.h **** 
1330:C:/Users/Mafish/Documents/GitHub/MAB_Driver/Libraries/XMCLib/inc\xmc_usic.h **** /**
1331:C:/Users/Mafish/Documents/GitHub/MAB_Driver/Libraries/XMCLib/inc\xmc_usic.h ****  * @param  channel Pointer to USIC channel handler of type @ref XMC_USIC_CH_t \n
1332:C:/Users/Mafish/Documents/GitHub/MAB_Driver/Libraries/XMCLib/inc\xmc_usic.h ****  * 				   \b Range: @ref XMC_USIC0_CH0, @ref XMC_USIC0_CH1 to @ref XMC_USIC2_CH1 based on device su
1333:C:/Users/Mafish/Documents/GitHub/MAB_Driver/Libraries/XMCLib/inc\xmc_usic.h ****  * @param  service_request_line service request number of the event to be triggered. \n
1334:C:/Users/Mafish/Documents/GitHub/MAB_Driver/Libraries/XMCLib/inc\xmc_usic.h ****  * 			\b Range: 0 to 5.
1335:C:/Users/Mafish/Documents/GitHub/MAB_Driver/Libraries/XMCLib/inc\xmc_usic.h ****  * @return None
1336:C:/Users/Mafish/Documents/GitHub/MAB_Driver/Libraries/XMCLib/inc\xmc_usic.h ****  *
1337:C:/Users/Mafish/Documents/GitHub/MAB_Driver/Libraries/XMCLib/inc\xmc_usic.h ****  * \par<b>Description</b><br>
1338:C:/Users/Mafish/Documents/GitHub/MAB_Driver/Libraries/XMCLib/inc\xmc_usic.h ****  * Trigger a USIC interrupt service request.\n\n
1339:C:/Users/Mafish/Documents/GitHub/MAB_Driver/Libraries/XMCLib/inc\xmc_usic.h ****  * When the USIC service request is triggered, the NVIC interrupt associated with it will be 
1340:C:/Users/Mafish/Documents/GitHub/MAB_Driver/Libraries/XMCLib/inc\xmc_usic.h ****  * generated if enabled. 
1341:C:/Users/Mafish/Documents/GitHub/MAB_Driver/Libraries/XMCLib/inc\xmc_usic.h ****  *
1342:C:/Users/Mafish/Documents/GitHub/MAB_Driver/Libraries/XMCLib/inc\xmc_usic.h ****  * \par<b>Related APIs:</b><BR>
1343:C:/Users/Mafish/Documents/GitHub/MAB_Driver/Libraries/XMCLib/inc\xmc_usic.h ****  * XMC_USIC_CH_SetInterruptNodePointer() \n\n\n
1344:C:/Users/Mafish/Documents/GitHub/MAB_Driver/Libraries/XMCLib/inc\xmc_usic.h ****  */
1345:C:/Users/Mafish/Documents/GitHub/MAB_Driver/Libraries/XMCLib/inc\xmc_usic.h **** __STATIC_INLINE void XMC_USIC_CH_TriggerServiceRequest(XMC_USIC_CH_t *const channel, const uint32_t
1346:C:/Users/Mafish/Documents/GitHub/MAB_Driver/Libraries/XMCLib/inc\xmc_usic.h **** {
1347:C:/Users/Mafish/Documents/GitHub/MAB_Driver/Libraries/XMCLib/inc\xmc_usic.h ****   channel->FMR = (uint32_t)(USIC_CH_FMR_SIO0_Msk << service_request_line);
1348:C:/Users/Mafish/Documents/GitHub/MAB_Driver/Libraries/XMCLib/inc\xmc_usic.h **** }
1349:C:/Users/Mafish/Documents/GitHub/MAB_Driver/Libraries/XMCLib/inc\xmc_usic.h **** 
1350:C:/Users/Mafish/Documents/GitHub/MAB_Driver/Libraries/XMCLib/inc\xmc_usic.h **** /**
1351:C:/Users/Mafish/Documents/GitHub/MAB_Driver/Libraries/XMCLib/inc\xmc_usic.h ****  * @param  channel Pointer to USIC channel handler of type @ref XMC_USIC_CH_t \n
1352:C:/Users/Mafish/Documents/GitHub/MAB_Driver/Libraries/XMCLib/inc\xmc_usic.h ****  * 				   \b Range: @ref XMC_USIC0_CH0, @ref XMC_USIC0_CH1 to @ref XMC_USIC2_CH1 based on device su
1353:C:/Users/Mafish/Documents/GitHub/MAB_Driver/Libraries/XMCLib/inc\xmc_usic.h ****  * @param  transmit_buffer_status clearing or setting the TDV flag. \n
1354:C:/Users/Mafish/Documents/GitHub/MAB_Driver/Libraries/XMCLib/inc\xmc_usic.h ****  *
1355:C:/Users/Mafish/Documents/GitHub/MAB_Driver/Libraries/XMCLib/inc\xmc_usic.h ****  * @return None
1356:C:/Users/Mafish/Documents/GitHub/MAB_Driver/Libraries/XMCLib/inc\xmc_usic.h ****  *
1357:C:/Users/Mafish/Documents/GitHub/MAB_Driver/Libraries/XMCLib/inc\xmc_usic.h ****  * \par<b>Description</b><br>
1358:C:/Users/Mafish/Documents/GitHub/MAB_Driver/Libraries/XMCLib/inc\xmc_usic.h ****  * Modify TCSR.TDV and TCSR.TE to control the start of a data word transmission by software.
1359:C:/Users/Mafish/Documents/GitHub/MAB_Driver/Libraries/XMCLib/inc\xmc_usic.h ****  *
1360:C:/Users/Mafish/Documents/GitHub/MAB_Driver/Libraries/XMCLib/inc\xmc_usic.h ****  * \par<b>Related APIs:</b><BR>
1361:C:/Users/Mafish/Documents/GitHub/MAB_Driver/Libraries/XMCLib/inc\xmc_usic.h ****  * XMC_USIC_CH_GetTransmitBufferStatus() \n\n\n
1362:C:/Users/Mafish/Documents/GitHub/MAB_Driver/Libraries/XMCLib/inc\xmc_usic.h ****  */
1363:C:/Users/Mafish/Documents/GitHub/MAB_Driver/Libraries/XMCLib/inc\xmc_usic.h **** __STATIC_INLINE void XMC_USIC_CH_SetTransmitBufferStatus(XMC_USIC_CH_t *const channel,
1364:C:/Users/Mafish/Documents/GitHub/MAB_Driver/Libraries/XMCLib/inc\xmc_usic.h **** 		                                                 const XMC_USIC_CH_TBUF_STATUS_SET_t transmit_buf
1365:C:/Users/Mafish/Documents/GitHub/MAB_Driver/Libraries/XMCLib/inc\xmc_usic.h **** {
1366:C:/Users/Mafish/Documents/GitHub/MAB_Driver/Libraries/XMCLib/inc\xmc_usic.h ****   channel->FMR = (uint32_t)transmit_buffer_status;
1367:C:/Users/Mafish/Documents/GitHub/MAB_Driver/Libraries/XMCLib/inc\xmc_usic.h **** }
1368:C:/Users/Mafish/Documents/GitHub/MAB_Driver/Libraries/XMCLib/inc\xmc_usic.h **** 
1369:C:/Users/Mafish/Documents/GitHub/MAB_Driver/Libraries/XMCLib/inc\xmc_usic.h **** /**
1370:C:/Users/Mafish/Documents/GitHub/MAB_Driver/Libraries/XMCLib/inc\xmc_usic.h ****  * @param  channel Pointer to USIC channel handler of type @ref XMC_USIC_CH_t \n
1371:C:/Users/Mafish/Documents/GitHub/MAB_Driver/Libraries/XMCLib/inc\xmc_usic.h ****  * 				   \b Range: @ref XMC_USIC0_CH0, @ref XMC_USIC0_CH1 to @ref XMC_USIC2_CH1 based on device su
1372:C:/Users/Mafish/Documents/GitHub/MAB_Driver/Libraries/XMCLib/inc\xmc_usic.h ****  * @param  passive_level Value of passive level for the channel. \n
1373:C:/Users/Mafish/Documents/GitHub/MAB_Driver/Libraries/XMCLib/inc\xmc_usic.h ****  * 			\b Range: @ref XMC_USIC_CH_PASSIVE_DATA_LEVEL0, @ref XMC_USIC_CH_PASSIVE_DATA_LEVEL1
1374:C:/Users/Mafish/Documents/GitHub/MAB_Driver/Libraries/XMCLib/inc\xmc_usic.h ****  * @return None
1375:C:/Users/Mafish/Documents/GitHub/MAB_Driver/Libraries/XMCLib/inc\xmc_usic.h ****  *
1376:C:/Users/Mafish/Documents/GitHub/MAB_Driver/Libraries/XMCLib/inc\xmc_usic.h ****  * \par<b>Description</b><br>
1377:C:/Users/Mafish/Documents/GitHub/MAB_Driver/Libraries/XMCLib/inc\xmc_usic.h ****  * Set the passive data level of the output signal. \n\n
1378:C:/Users/Mafish/Documents/GitHub/MAB_Driver/Libraries/XMCLib/inc\xmc_usic.h ****  * When the USIC channel transmit stage is idle, the output signal level stays at the 
1379:C:/Users/Mafish/Documents/GitHub/MAB_Driver/Libraries/XMCLib/inc\xmc_usic.h ****  * configured passive level.
1380:C:/Users/Mafish/Documents/GitHub/MAB_Driver/Libraries/XMCLib/inc\xmc_usic.h ****  * 
1381:C:/Users/Mafish/Documents/GitHub/MAB_Driver/Libraries/XMCLib/inc\xmc_usic.h ****  * \par<b>Related APIs:</b><BR>
1382:C:/Users/Mafish/Documents/GitHub/MAB_Driver/Libraries/XMCLib/inc\xmc_usic.h ****  * XMC_USIC_CH_GetTransmitBufferStatus(), XMC_USIC_CH_SetStartTransmisionMode() \n\n\n
1383:C:/Users/Mafish/Documents/GitHub/MAB_Driver/Libraries/XMCLib/inc\xmc_usic.h ****  */
1384:C:/Users/Mafish/Documents/GitHub/MAB_Driver/Libraries/XMCLib/inc\xmc_usic.h **** __STATIC_INLINE void XMC_USIC_CH_SetPassiveDataLevel(XMC_USIC_CH_t *const channel,
1385:C:/Users/Mafish/Documents/GitHub/MAB_Driver/Libraries/XMCLib/inc\xmc_usic.h ****                                                      const XMC_USIC_CH_PASSIVE_DATA_LEVEL_t passive
1386:C:/Users/Mafish/Documents/GitHub/MAB_Driver/Libraries/XMCLib/inc\xmc_usic.h **** {
1387:C:/Users/Mafish/Documents/GitHub/MAB_Driver/Libraries/XMCLib/inc\xmc_usic.h ****   channel->SCTR &= (~USIC_CH_SCTR_PDL_Msk);
1388:C:/Users/Mafish/Documents/GitHub/MAB_Driver/Libraries/XMCLib/inc\xmc_usic.h ****   channel->SCTR |= (uint32_t)passive_level;
1389:C:/Users/Mafish/Documents/GitHub/MAB_Driver/Libraries/XMCLib/inc\xmc_usic.h **** }
1390:C:/Users/Mafish/Documents/GitHub/MAB_Driver/Libraries/XMCLib/inc\xmc_usic.h **** 
1391:C:/Users/Mafish/Documents/GitHub/MAB_Driver/Libraries/XMCLib/inc\xmc_usic.h **** /* TX FIFO APIs */
1392:C:/Users/Mafish/Documents/GitHub/MAB_Driver/Libraries/XMCLib/inc\xmc_usic.h **** /**
1393:C:/Users/Mafish/Documents/GitHub/MAB_Driver/Libraries/XMCLib/inc\xmc_usic.h ****  * @param channel Pointer to USIC channel handler of type @ref XMC_USIC_CH_t \n
1394:C:/Users/Mafish/Documents/GitHub/MAB_Driver/Libraries/XMCLib/inc\xmc_usic.h ****  * 				   \b Range: @ref XMC_USIC0_CH0, @ref XMC_USIC0_CH1 to @ref XMC_USIC2_CH1 based on device su
1395:C:/Users/Mafish/Documents/GitHub/MAB_Driver/Libraries/XMCLib/inc\xmc_usic.h ****  * @param data_pointer Start position inside the FIFO buffer. \n
1396:C:/Users/Mafish/Documents/GitHub/MAB_Driver/Libraries/XMCLib/inc\xmc_usic.h ****  * 		\b Range: 0 to 63.
1397:C:/Users/Mafish/Documents/GitHub/MAB_Driver/Libraries/XMCLib/inc\xmc_usic.h ****  * @param size Required size of the transmit FIFO. \n
1398:C:/Users/Mafish/Documents/GitHub/MAB_Driver/Libraries/XMCLib/inc\xmc_usic.h ****  * 		\b Range: @ref XMC_USIC_CH_FIFO_DISABLED, @ref XMC_USIC_CH_FIFO_SIZE_2WORDS.. @ref XMC_USIC_CH
1399:C:/Users/Mafish/Documents/GitHub/MAB_Driver/Libraries/XMCLib/inc\xmc_usic.h ****  * @param limit Threshold of transmit FIFO filling level to be considered for generating events. \n
1400:C:/Users/Mafish/Documents/GitHub/MAB_Driver/Libraries/XMCLib/inc\xmc_usic.h ****  * 		\b Range: 0 to \a size -1.
1401:C:/Users/Mafish/Documents/GitHub/MAB_Driver/Libraries/XMCLib/inc\xmc_usic.h ****  * @return None
1402:C:/Users/Mafish/Documents/GitHub/MAB_Driver/Libraries/XMCLib/inc\xmc_usic.h ****  *
1403:C:/Users/Mafish/Documents/GitHub/MAB_Driver/Libraries/XMCLib/inc\xmc_usic.h ****  * \par<b>Description</b><br>
1404:C:/Users/Mafish/Documents/GitHub/MAB_Driver/Libraries/XMCLib/inc\xmc_usic.h ****  * Initializes the transmit FIFO. \n\n
1405:C:/Users/Mafish/Documents/GitHub/MAB_Driver/Libraries/XMCLib/inc\xmc_usic.h ****  * Transmit FIFO is a subset of a common FIFO sized 64 words. This FIFO is shared between 2 channel
1406:C:/Users/Mafish/Documents/GitHub/MAB_Driver/Libraries/XMCLib/inc\xmc_usic.h ****  * Each channel can share the FIFO for transmission and reception. \a data_pointer represents the s
1407:C:/Users/Mafish/Documents/GitHub/MAB_Driver/Libraries/XMCLib/inc\xmc_usic.h ****  * from where transmit data can be put, for the selected USIC channel. \a size represents the size 
1408:C:/Users/Mafish/Documents/GitHub/MAB_Driver/Libraries/XMCLib/inc\xmc_usic.h ****  * 2. Since the FIFO is shared between 2 USIC channels, FIFO size should be carefully selected. A F
1409:C:/Users/Mafish/Documents/GitHub/MAB_Driver/Libraries/XMCLib/inc\xmc_usic.h ****  * event is generated when the FIFO filling level falls below the \a limit value.
1410:C:/Users/Mafish/Documents/GitHub/MAB_Driver/Libraries/XMCLib/inc\xmc_usic.h ****  *
1411:C:/Users/Mafish/Documents/GitHub/MAB_Driver/Libraries/XMCLib/inc\xmc_usic.h ****  * \par<b>Related APIs:</b><BR>
1412:C:/Users/Mafish/Documents/GitHub/MAB_Driver/Libraries/XMCLib/inc\xmc_usic.h ****  * XMC_USIC_CH_TXFIFO_EnableEvent(), XMC_USIC_CH_TXFIFO_SetInterruptNodePointer() \n\n\n
1413:C:/Users/Mafish/Documents/GitHub/MAB_Driver/Libraries/XMCLib/inc\xmc_usic.h ****  */
1414:C:/Users/Mafish/Documents/GitHub/MAB_Driver/Libraries/XMCLib/inc\xmc_usic.h **** void XMC_USIC_CH_TXFIFO_Configure(XMC_USIC_CH_t *const channel,
1415:C:/Users/Mafish/Documents/GitHub/MAB_Driver/Libraries/XMCLib/inc\xmc_usic.h ****                                   const uint32_t data_pointer,
1416:C:/Users/Mafish/Documents/GitHub/MAB_Driver/Libraries/XMCLib/inc\xmc_usic.h ****                                   const XMC_USIC_CH_FIFO_SIZE_t size,
1417:C:/Users/Mafish/Documents/GitHub/MAB_Driver/Libraries/XMCLib/inc\xmc_usic.h ****                                   const uint32_t limit);
1418:C:/Users/Mafish/Documents/GitHub/MAB_Driver/Libraries/XMCLib/inc\xmc_usic.h **** 
1419:C:/Users/Mafish/Documents/GitHub/MAB_Driver/Libraries/XMCLib/inc\xmc_usic.h **** /**
1420:C:/Users/Mafish/Documents/GitHub/MAB_Driver/Libraries/XMCLib/inc\xmc_usic.h ****  * @param channel Pointer to USIC channel handler of type @ref XMC_USIC_CH_t \n
1421:C:/Users/Mafish/Documents/GitHub/MAB_Driver/Libraries/XMCLib/inc\xmc_usic.h ****  * 				   \b Range: @ref XMC_USIC0_CH0, @ref XMC_USIC0_CH1 to @ref XMC_USIC2_CH1 based on device su
1422:C:/Users/Mafish/Documents/GitHub/MAB_Driver/Libraries/XMCLib/inc\xmc_usic.h ****  * @param size Required size of the transmit FIFO. \n
1423:C:/Users/Mafish/Documents/GitHub/MAB_Driver/Libraries/XMCLib/inc\xmc_usic.h ****  * 		\b Range: @ref XMC_USIC_CH_FIFO_DISABLED, @ref XMC_USIC_CH_FIFO_SIZE_2WORDS.. @ref XMC_USIC_CH
1424:C:/Users/Mafish/Documents/GitHub/MAB_Driver/Libraries/XMCLib/inc\xmc_usic.h ****  * @param limit Threshold for transmit FIFO filling level to be considered for generating events. \
1425:C:/Users/Mafish/Documents/GitHub/MAB_Driver/Libraries/XMCLib/inc\xmc_usic.h ****  * 		\b Range: 0 to \a size -1.
1426:C:/Users/Mafish/Documents/GitHub/MAB_Driver/Libraries/XMCLib/inc\xmc_usic.h ****  * @return None
1427:C:/Users/Mafish/Documents/GitHub/MAB_Driver/Libraries/XMCLib/inc\xmc_usic.h ****  *
1428:C:/Users/Mafish/Documents/GitHub/MAB_Driver/Libraries/XMCLib/inc\xmc_usic.h ****  * \par<b>Description</b><br>
1429:C:/Users/Mafish/Documents/GitHub/MAB_Driver/Libraries/XMCLib/inc\xmc_usic.h ****  * Sets the size and trigger limit for the transmit FIFO. \n\n
1430:C:/Users/Mafish/Documents/GitHub/MAB_Driver/Libraries/XMCLib/inc\xmc_usic.h ****  * The API is not to be called for initializing the transmit FIFO. The API shall be used for the 
1431:C:/Users/Mafish/Documents/GitHub/MAB_Driver/Libraries/XMCLib/inc\xmc_usic.h ****  * runtime change of transmit FIFO trigger limit. FIFO start position will not be affected on execu
1432:C:/Users/Mafish/Documents/GitHub/MAB_Driver/Libraries/XMCLib/inc\xmc_usic.h ****  *
1433:C:/Users/Mafish/Documents/GitHub/MAB_Driver/Libraries/XMCLib/inc\xmc_usic.h ****  * \par<b>Related APIs:</b><BR>
1434:C:/Users/Mafish/Documents/GitHub/MAB_Driver/Libraries/XMCLib/inc\xmc_usic.h ****  * XMC_USIC_CH_RXFIFO_SetSizeTriggerLimit() \n\n\n
1435:C:/Users/Mafish/Documents/GitHub/MAB_Driver/Libraries/XMCLib/inc\xmc_usic.h ****  */
1436:C:/Users/Mafish/Documents/GitHub/MAB_Driver/Libraries/XMCLib/inc\xmc_usic.h **** void XMC_USIC_CH_TXFIFO_SetSizeTriggerLimit(XMC_USIC_CH_t *const channel,
1437:C:/Users/Mafish/Documents/GitHub/MAB_Driver/Libraries/XMCLib/inc\xmc_usic.h ****                                             const XMC_USIC_CH_FIFO_SIZE_t size,
1438:C:/Users/Mafish/Documents/GitHub/MAB_Driver/Libraries/XMCLib/inc\xmc_usic.h ****                                             const uint32_t limit);
1439:C:/Users/Mafish/Documents/GitHub/MAB_Driver/Libraries/XMCLib/inc\xmc_usic.h **** 
1440:C:/Users/Mafish/Documents/GitHub/MAB_Driver/Libraries/XMCLib/inc\xmc_usic.h **** 
1441:C:/Users/Mafish/Documents/GitHub/MAB_Driver/Libraries/XMCLib/inc\xmc_usic.h **** /**
1442:C:/Users/Mafish/Documents/GitHub/MAB_Driver/Libraries/XMCLib/inc\xmc_usic.h ****  * @param channel Pointer to USIC channel handler of type @ref XMC_USIC_CH_t \n
1443:C:/Users/Mafish/Documents/GitHub/MAB_Driver/Libraries/XMCLib/inc\xmc_usic.h ****  * 				   \b Range: @ref XMC_USIC0_CH0, @ref XMC_USIC0_CH1 to @ref XMC_USIC2_CH1 based on device su
1444:C:/Users/Mafish/Documents/GitHub/MAB_Driver/Libraries/XMCLib/inc\xmc_usic.h ****  * @param event Events to be enabled. Multiple events can be bitwise OR combined. @ref XMC_USIC_CH_
1445:C:/Users/Mafish/Documents/GitHub/MAB_Driver/Libraries/XMCLib/inc\xmc_usic.h ****  * @return None
1446:C:/Users/Mafish/Documents/GitHub/MAB_Driver/Libraries/XMCLib/inc\xmc_usic.h ****  *
1447:C:/Users/Mafish/Documents/GitHub/MAB_Driver/Libraries/XMCLib/inc\xmc_usic.h ****  * \par<b>Description</b><br>
1448:C:/Users/Mafish/Documents/GitHub/MAB_Driver/Libraries/XMCLib/inc\xmc_usic.h ****  * Enables the interrupt events related to transmit FIFO. \n\n
1449:C:/Users/Mafish/Documents/GitHub/MAB_Driver/Libraries/XMCLib/inc\xmc_usic.h ****  * Event bitmasks can be constructed using the enumeration @ref XMC_USIC_CH_TXFIFO_EVENT_CONF_t.
1450:C:/Users/Mafish/Documents/GitHub/MAB_Driver/Libraries/XMCLib/inc\xmc_usic.h ****  * Multiple events can be enabled by providing multiple events in a single call. For providing 
1451:C:/Users/Mafish/Documents/GitHub/MAB_Driver/Libraries/XMCLib/inc\xmc_usic.h ****  * multiple events, combine the events using bitwise OR operation. Events are configured in the TBC
1452:C:/Users/Mafish/Documents/GitHub/MAB_Driver/Libraries/XMCLib/inc\xmc_usic.h ****  * 
1453:C:/Users/Mafish/Documents/GitHub/MAB_Driver/Libraries/XMCLib/inc\xmc_usic.h ****  * Note: API only enables the events. For interrupt generation, interrupt node must be configured a
1454:C:/Users/Mafish/Documents/GitHub/MAB_Driver/Libraries/XMCLib/inc\xmc_usic.h ****  * must be enabled.
1455:C:/Users/Mafish/Documents/GitHub/MAB_Driver/Libraries/XMCLib/inc\xmc_usic.h ****  *
1456:C:/Users/Mafish/Documents/GitHub/MAB_Driver/Libraries/XMCLib/inc\xmc_usic.h ****  * \par<b>Related APIs:</b><BR>
1457:C:/Users/Mafish/Documents/GitHub/MAB_Driver/Libraries/XMCLib/inc\xmc_usic.h ****  * XMC_USIC_CH_TXFIFO_SetInterruptNodePointer() \n\n\n
1458:C:/Users/Mafish/Documents/GitHub/MAB_Driver/Libraries/XMCLib/inc\xmc_usic.h ****  */
1459:C:/Users/Mafish/Documents/GitHub/MAB_Driver/Libraries/XMCLib/inc\xmc_usic.h **** __STATIC_INLINE void XMC_USIC_CH_TXFIFO_EnableEvent(XMC_USIC_CH_t *const channel, const uint32_t ev
1460:C:/Users/Mafish/Documents/GitHub/MAB_Driver/Libraries/XMCLib/inc\xmc_usic.h **** {
1461:C:/Users/Mafish/Documents/GitHub/MAB_Driver/Libraries/XMCLib/inc\xmc_usic.h ****   channel->TBCTR |= event;
1462:C:/Users/Mafish/Documents/GitHub/MAB_Driver/Libraries/XMCLib/inc\xmc_usic.h **** }
1463:C:/Users/Mafish/Documents/GitHub/MAB_Driver/Libraries/XMCLib/inc\xmc_usic.h **** 
1464:C:/Users/Mafish/Documents/GitHub/MAB_Driver/Libraries/XMCLib/inc\xmc_usic.h **** 
1465:C:/Users/Mafish/Documents/GitHub/MAB_Driver/Libraries/XMCLib/inc\xmc_usic.h **** /**
1466:C:/Users/Mafish/Documents/GitHub/MAB_Driver/Libraries/XMCLib/inc\xmc_usic.h ****  * @param channel Pointer to USIC channel handler of type @ref XMC_USIC_CH_t \n
1467:C:/Users/Mafish/Documents/GitHub/MAB_Driver/Libraries/XMCLib/inc\xmc_usic.h ****  * 				   \b Range: @ref XMC_USIC0_CH0, @ref XMC_USIC0_CH1 to @ref XMC_USIC2_CH1 based on device su
1468:C:/Users/Mafish/Documents/GitHub/MAB_Driver/Libraries/XMCLib/inc\xmc_usic.h ****  * @param event Events to be disabled. @ref XMC_USIC_CH_TXFIFO_EVENT_CONF_t \n
1469:C:/Users/Mafish/Documents/GitHub/MAB_Driver/Libraries/XMCLib/inc\xmc_usic.h ****  * @return None
1470:C:/Users/Mafish/Documents/GitHub/MAB_Driver/Libraries/XMCLib/inc\xmc_usic.h ****  *
1471:C:/Users/Mafish/Documents/GitHub/MAB_Driver/Libraries/XMCLib/inc\xmc_usic.h ****  * \par<b>Description</b><br>
1472:C:/Users/Mafish/Documents/GitHub/MAB_Driver/Libraries/XMCLib/inc\xmc_usic.h ****  * Disables the interrupt events related to transmit FIFO. \n\n
1473:C:/Users/Mafish/Documents/GitHub/MAB_Driver/Libraries/XMCLib/inc\xmc_usic.h ****  * By disabling the interrupt events, generation of interrupt is stopped. User can poll the event 
1474:C:/Users/Mafish/Documents/GitHub/MAB_Driver/Libraries/XMCLib/inc\xmc_usic.h ****  * flags from the status register using the API XMC_USIC_CH_TXFIFO_GetEvent(). 
1475:C:/Users/Mafish/Documents/GitHub/MAB_Driver/Libraries/XMCLib/inc\xmc_usic.h ****  * Event bitmasks can be constructed using the enumeration @ref XMC_USIC_CH_TXFIFO_EVENT_CONF_t. Fo
1476:C:/Users/Mafish/Documents/GitHub/MAB_Driver/Libraries/XMCLib/inc\xmc_usic.h ****  * multiple events, combine the events using bitwise OR operation.
1477:C:/Users/Mafish/Documents/GitHub/MAB_Driver/Libraries/XMCLib/inc\xmc_usic.h ****  *
1478:C:/Users/Mafish/Documents/GitHub/MAB_Driver/Libraries/XMCLib/inc\xmc_usic.h ****  * \par<b>Related APIs:</b><BR>
1479:C:/Users/Mafish/Documents/GitHub/MAB_Driver/Libraries/XMCLib/inc\xmc_usic.h ****  * XMC_USIC_CH_TXFIFO_GetEvent(), XMC_USIC_CH_TXFIFO_EnableEvent() \n\n\n
1480:C:/Users/Mafish/Documents/GitHub/MAB_Driver/Libraries/XMCLib/inc\xmc_usic.h ****  */
1481:C:/Users/Mafish/Documents/GitHub/MAB_Driver/Libraries/XMCLib/inc\xmc_usic.h **** __STATIC_INLINE void XMC_USIC_CH_TXFIFO_DisableEvent(XMC_USIC_CH_t *const channel, const uint32_t e
1482:C:/Users/Mafish/Documents/GitHub/MAB_Driver/Libraries/XMCLib/inc\xmc_usic.h **** {
1483:C:/Users/Mafish/Documents/GitHub/MAB_Driver/Libraries/XMCLib/inc\xmc_usic.h ****   channel->TBCTR &= (uint32_t)~event;
1484:C:/Users/Mafish/Documents/GitHub/MAB_Driver/Libraries/XMCLib/inc\xmc_usic.h **** }
1485:C:/Users/Mafish/Documents/GitHub/MAB_Driver/Libraries/XMCLib/inc\xmc_usic.h **** 
1486:C:/Users/Mafish/Documents/GitHub/MAB_Driver/Libraries/XMCLib/inc\xmc_usic.h **** /**
1487:C:/Users/Mafish/Documents/GitHub/MAB_Driver/Libraries/XMCLib/inc\xmc_usic.h ****  * @param channel Pointer to USIC channel handler of type @ref XMC_USIC_CH_t \n
1488:C:/Users/Mafish/Documents/GitHub/MAB_Driver/Libraries/XMCLib/inc\xmc_usic.h ****  * 				      \b Range: @ref XMC_USIC0_CH0, @ref XMC_USIC0_CH1 to @ref XMC_USIC2_CH1 based on device
1489:C:/Users/Mafish/Documents/GitHub/MAB_Driver/Libraries/XMCLib/inc\xmc_usic.h ****  * @param interrupt_node Node pointer representing the transmit FIFO events. \n
1490:C:/Users/Mafish/Documents/GitHub/MAB_Driver/Libraries/XMCLib/inc\xmc_usic.h ****  * 						  \b Range: @ref XMC_USIC_CH_TXFIFO_INTERRUPT_NODE_POINTER_STANDARD,
1491:C:/Users/Mafish/Documents/GitHub/MAB_Driver/Libraries/XMCLib/inc\xmc_usic.h ****  * 						  			@ref XMC_USIC_CH_TXFIFO_INTERRUPT_NODE_POINTER_ALTERNATE
1492:C:/Users/Mafish/Documents/GitHub/MAB_Driver/Libraries/XMCLib/inc\xmc_usic.h ****  * @param service_request The service request to be used for interrupt generation. \n
1493:C:/Users/Mafish/Documents/GitHub/MAB_Driver/Libraries/XMCLib/inc\xmc_usic.h ****  * 						  \b Range: 0 to 5.
1494:C:/Users/Mafish/Documents/GitHub/MAB_Driver/Libraries/XMCLib/inc\xmc_usic.h ****  * @return None
1495:C:/Users/Mafish/Documents/GitHub/MAB_Driver/Libraries/XMCLib/inc\xmc_usic.h ****  *
1496:C:/Users/Mafish/Documents/GitHub/MAB_Driver/Libraries/XMCLib/inc\xmc_usic.h ****  * \par<b>Description</b><br>
1497:C:/Users/Mafish/Documents/GitHub/MAB_Driver/Libraries/XMCLib/inc\xmc_usic.h ****  * Sets an interrupt node for the transmit FIFO events.\n\n
1498:C:/Users/Mafish/Documents/GitHub/MAB_Driver/Libraries/XMCLib/inc\xmc_usic.h ****  * A node pointer represents one or more interrupt events. Service request represents the interrupt
1499:C:/Users/Mafish/Documents/GitHub/MAB_Driver/Libraries/XMCLib/inc\xmc_usic.h ****  * among the 6 interrupt nodes available for USIC module.
1500:C:/Users/Mafish/Documents/GitHub/MAB_Driver/Libraries/XMCLib/inc\xmc_usic.h ****  * API configures the service request to be used for interrupt generation for the events selected.
1501:C:/Users/Mafish/Documents/GitHub/MAB_Driver/Libraries/XMCLib/inc\xmc_usic.h ****  * A transmit FIFO event can generate an interrupt only if the interrupt node is configured for the
1502:C:/Users/Mafish/Documents/GitHub/MAB_Driver/Libraries/XMCLib/inc\xmc_usic.h ****  * the interrupt generation is enabled for the event. For example, transmit FIFO standard transmit 
1503:C:/Users/Mafish/Documents/GitHub/MAB_Driver/Libraries/XMCLib/inc\xmc_usic.h ****  * interrupt is generated if the interrupt node for the same is set and interrupt is enabled.<br>
1504:C:/Users/Mafish/Documents/GitHub/MAB_Driver/Libraries/XMCLib/inc\xmc_usic.h ****  *
1505:C:/Users/Mafish/Documents/GitHub/MAB_Driver/Libraries/XMCLib/inc\xmc_usic.h ****  * Note: NVIC node should be explicitly enabled for the interrupt generation.
1506:C:/Users/Mafish/Documents/GitHub/MAB_Driver/Libraries/XMCLib/inc\xmc_usic.h ****  *
1507:C:/Users/Mafish/Documents/GitHub/MAB_Driver/Libraries/XMCLib/inc\xmc_usic.h ****  * \par<b>Related APIs:</b><BR>
1508:C:/Users/Mafish/Documents/GitHub/MAB_Driver/Libraries/XMCLib/inc\xmc_usic.h ****  * XMC_USIC_CH_TXFIFO_EnableEvent() \n\n\n
1509:C:/Users/Mafish/Documents/GitHub/MAB_Driver/Libraries/XMCLib/inc\xmc_usic.h ****  */
1510:C:/Users/Mafish/Documents/GitHub/MAB_Driver/Libraries/XMCLib/inc\xmc_usic.h **** void XMC_USIC_CH_TXFIFO_SetInterruptNodePointer(XMC_USIC_CH_t *const channel,
1511:C:/Users/Mafish/Documents/GitHub/MAB_Driver/Libraries/XMCLib/inc\xmc_usic.h ****                                                 const XMC_USIC_CH_TXFIFO_INTERRUPT_NODE_POINTER_t i
1512:C:/Users/Mafish/Documents/GitHub/MAB_Driver/Libraries/XMCLib/inc\xmc_usic.h ****                                                 const uint32_t service_request);
1513:C:/Users/Mafish/Documents/GitHub/MAB_Driver/Libraries/XMCLib/inc\xmc_usic.h **** 
1514:C:/Users/Mafish/Documents/GitHub/MAB_Driver/Libraries/XMCLib/inc\xmc_usic.h **** /**
1515:C:/Users/Mafish/Documents/GitHub/MAB_Driver/Libraries/XMCLib/inc\xmc_usic.h ****  * @param channel Pointer to USIC channel handler of type @ref XMC_USIC_CH_t \n
1516:C:/Users/Mafish/Documents/GitHub/MAB_Driver/Libraries/XMCLib/inc\xmc_usic.h ****  * 				   \b Range: @ref XMC_USIC0_CH0, @ref XMC_USIC0_CH1 to @ref XMC_USIC2_CH1 based on device su
1517:C:/Users/Mafish/Documents/GitHub/MAB_Driver/Libraries/XMCLib/inc\xmc_usic.h ****  * @param data Data to be transmitted. \n
1518:C:/Users/Mafish/Documents/GitHub/MAB_Driver/Libraries/XMCLib/inc\xmc_usic.h ****  *           \b Range: 16bit unsigned data. minimum= 0, maximum= 65535
1519:C:/Users/Mafish/Documents/GitHub/MAB_Driver/Libraries/XMCLib/inc\xmc_usic.h ****  * @return None
1520:C:/Users/Mafish/Documents/GitHub/MAB_Driver/Libraries/XMCLib/inc\xmc_usic.h ****  *
1521:C:/Users/Mafish/Documents/GitHub/MAB_Driver/Libraries/XMCLib/inc\xmc_usic.h ****  * \par<b>Description</b><br>
1522:C:/Users/Mafish/Documents/GitHub/MAB_Driver/Libraries/XMCLib/inc\xmc_usic.h ****  * Writes data into the transmit FIFO. \n\n
1523:C:/Users/Mafish/Documents/GitHub/MAB_Driver/Libraries/XMCLib/inc\xmc_usic.h ****  * The data provided is placed in the transmit FIFO.
1524:C:/Users/Mafish/Documents/GitHub/MAB_Driver/Libraries/XMCLib/inc\xmc_usic.h ****  * The transmit FIFO should be configured before calling this API.
1525:C:/Users/Mafish/Documents/GitHub/MAB_Driver/Libraries/XMCLib/inc\xmc_usic.h ****  *
1526:C:/Users/Mafish/Documents/GitHub/MAB_Driver/Libraries/XMCLib/inc\xmc_usic.h ****  * \par<b>Related APIs:</b><BR>
1527:C:/Users/Mafish/Documents/GitHub/MAB_Driver/Libraries/XMCLib/inc\xmc_usic.h ****  * XMC_USIC_CH_TXFIFO_EnableEvent() \n\n\n
1528:C:/Users/Mafish/Documents/GitHub/MAB_Driver/Libraries/XMCLib/inc\xmc_usic.h ****  */
1529:C:/Users/Mafish/Documents/GitHub/MAB_Driver/Libraries/XMCLib/inc\xmc_usic.h **** __STATIC_INLINE void XMC_USIC_CH_TXFIFO_PutData(XMC_USIC_CH_t *const channel, const uint16_t data)
1530:C:/Users/Mafish/Documents/GitHub/MAB_Driver/Libraries/XMCLib/inc\xmc_usic.h **** {
1531:C:/Users/Mafish/Documents/GitHub/MAB_Driver/Libraries/XMCLib/inc\xmc_usic.h ****   channel->IN[0] = data;
1532:C:/Users/Mafish/Documents/GitHub/MAB_Driver/Libraries/XMCLib/inc\xmc_usic.h **** }
1533:C:/Users/Mafish/Documents/GitHub/MAB_Driver/Libraries/XMCLib/inc\xmc_usic.h **** 
1534:C:/Users/Mafish/Documents/GitHub/MAB_Driver/Libraries/XMCLib/inc\xmc_usic.h **** /**
1535:C:/Users/Mafish/Documents/GitHub/MAB_Driver/Libraries/XMCLib/inc\xmc_usic.h ****  * @param channel Pointer to USIC channel handler of type @ref XMC_USIC_CH_t \n
1536:C:/Users/Mafish/Documents/GitHub/MAB_Driver/Libraries/XMCLib/inc\xmc_usic.h ****  * 				   \b Range: @ref XMC_USIC0_CH0, @ref XMC_USIC0_CH1 to @ref XMC_USIC2_CH1 based on device su
1537:C:/Users/Mafish/Documents/GitHub/MAB_Driver/Libraries/XMCLib/inc\xmc_usic.h ****  * @param data Data to be transmitted.
1538:C:/Users/Mafish/Documents/GitHub/MAB_Driver/Libraries/XMCLib/inc\xmc_usic.h ****  * @param frame_length Frame length to be configured while transmitting the data. \n
1539:C:/Users/Mafish/Documents/GitHub/MAB_Driver/Libraries/XMCLib/inc\xmc_usic.h ****  * 			\b Range: minimum= 0, maximum= 31. e.g: For a frame length of 16, set \a frame_length as 15.
1540:C:/Users/Mafish/Documents/GitHub/MAB_Driver/Libraries/XMCLib/inc\xmc_usic.h ****  * @return None
1541:C:/Users/Mafish/Documents/GitHub/MAB_Driver/Libraries/XMCLib/inc\xmc_usic.h ****  *
1542:C:/Users/Mafish/Documents/GitHub/MAB_Driver/Libraries/XMCLib/inc\xmc_usic.h ****  * \par<b>Description</b><br>
1543:C:/Users/Mafish/Documents/GitHub/MAB_Driver/Libraries/XMCLib/inc\xmc_usic.h ****  * Writes data to the transmit FIFO in frame length control mode. \n\n
1544:C:/Users/Mafish/Documents/GitHub/MAB_Driver/Libraries/XMCLib/inc\xmc_usic.h ****  * When frame length control is enabled for dynamic update of frame length, this API can be used.
1545:C:/Users/Mafish/Documents/GitHub/MAB_Driver/Libraries/XMCLib/inc\xmc_usic.h ****  * \a frame_length represents the frame length to be updated by the peripheral. 
1546:C:/Users/Mafish/Documents/GitHub/MAB_Driver/Libraries/XMCLib/inc\xmc_usic.h ****  * \a frame_length is used as index for the IN[] register array.
1547:C:/Users/Mafish/Documents/GitHub/MAB_Driver/Libraries/XMCLib/inc\xmc_usic.h ****  * 
1548:C:/Users/Mafish/Documents/GitHub/MAB_Driver/Libraries/XMCLib/inc\xmc_usic.h ****  * \par<b>Related APIs:</b><BR>
1549:C:/Users/Mafish/Documents/GitHub/MAB_Driver/Libraries/XMCLib/inc\xmc_usic.h ****  * XMC_USIC_CH_EnableFrameLengthControl() \n\n\n
1550:C:/Users/Mafish/Documents/GitHub/MAB_Driver/Libraries/XMCLib/inc\xmc_usic.h ****  */
1551:C:/Users/Mafish/Documents/GitHub/MAB_Driver/Libraries/XMCLib/inc\xmc_usic.h **** __STATIC_INLINE void XMC_USIC_CH_TXFIFO_PutDataFLEMode(XMC_USIC_CH_t *const channel,
1552:C:/Users/Mafish/Documents/GitHub/MAB_Driver/Libraries/XMCLib/inc\xmc_usic.h ****                                                        const uint16_t data,
1553:C:/Users/Mafish/Documents/GitHub/MAB_Driver/Libraries/XMCLib/inc\xmc_usic.h ****                                                        const uint32_t frame_length)
1554:C:/Users/Mafish/Documents/GitHub/MAB_Driver/Libraries/XMCLib/inc\xmc_usic.h **** {
1555:C:/Users/Mafish/Documents/GitHub/MAB_Driver/Libraries/XMCLib/inc\xmc_usic.h ****   channel->IN[frame_length] = data;
1556:C:/Users/Mafish/Documents/GitHub/MAB_Driver/Libraries/XMCLib/inc\xmc_usic.h **** }
1557:C:/Users/Mafish/Documents/GitHub/MAB_Driver/Libraries/XMCLib/inc\xmc_usic.h **** 
1558:C:/Users/Mafish/Documents/GitHub/MAB_Driver/Libraries/XMCLib/inc\xmc_usic.h **** /**
1559:C:/Users/Mafish/Documents/GitHub/MAB_Driver/Libraries/XMCLib/inc\xmc_usic.h ****  * @param channel Pointer to USIC channel handler of type @ref XMC_USIC_CH_t \n
1560:C:/Users/Mafish/Documents/GitHub/MAB_Driver/Libraries/XMCLib/inc\xmc_usic.h ****  * 				   \b Range: @ref XMC_USIC0_CH0, @ref XMC_USIC0_CH1 to @ref XMC_USIC2_CH1 based on device su
1561:C:/Users/Mafish/Documents/GitHub/MAB_Driver/Libraries/XMCLib/inc\xmc_usic.h ****  * @param data Data to be transmitted.
1562:C:/Users/Mafish/Documents/GitHub/MAB_Driver/Libraries/XMCLib/inc\xmc_usic.h ****  * @param frame_length Frame length to be configured while transmitting the data. \n
1563:C:/Users/Mafish/Documents/GitHub/MAB_Driver/Libraries/XMCLib/inc\xmc_usic.h ****  * 			\b Range: minimum= 0, maximum= 31. e.g: For a frame length of 16, set \a frame_length as 15.
1564:C:/Users/Mafish/Documents/GitHub/MAB_Driver/Libraries/XMCLib/inc\xmc_usic.h ****  * @return None
1565:C:/Users/Mafish/Documents/GitHub/MAB_Driver/Libraries/XMCLib/inc\xmc_usic.h ****  *
1566:C:/Users/Mafish/Documents/GitHub/MAB_Driver/Libraries/XMCLib/inc\xmc_usic.h ****  * \par<b>Description</b><br>
1567:C:/Users/Mafish/Documents/GitHub/MAB_Driver/Libraries/XMCLib/inc\xmc_usic.h ****  * Writes data to the transmit FIFO in hardware port control mode. \n\n
1568:C:/Users/Mafish/Documents/GitHub/MAB_Driver/Libraries/XMCLib/inc\xmc_usic.h ****  * When hardware port control is enabled for dynamic update of frame length, this API can be used.
1569:C:/Users/Mafish/Documents/GitHub/MAB_Driver/Libraries/XMCLib/inc\xmc_usic.h ****  * \a frame_length represents the frame length to be updated by the peripheral. 
1570:C:/Users/Mafish/Documents/GitHub/MAB_Driver/Libraries/XMCLib/inc\xmc_usic.h ****  * \a frame_length is used as index for the IN[] register array.
1571:C:/Users/Mafish/Documents/GitHub/MAB_Driver/Libraries/XMCLib/inc\xmc_usic.h ****  * 
1572:C:/Users/Mafish/Documents/GitHub/MAB_Driver/Libraries/XMCLib/inc\xmc_usic.h ****  * \par<b>Related APIs:</b><BR>
1573:C:/Users/Mafish/Documents/GitHub/MAB_Driver/Libraries/XMCLib/inc\xmc_usic.h ****  * XMC_USIC_CH_EnableFrameLengthControl() \n\n\n
1574:C:/Users/Mafish/Documents/GitHub/MAB_Driver/Libraries/XMCLib/inc\xmc_usic.h ****  */
1575:C:/Users/Mafish/Documents/GitHub/MAB_Driver/Libraries/XMCLib/inc\xmc_usic.h **** __STATIC_INLINE void XMC_USIC_CH_TXFIFO_PutDataHPCMode(XMC_USIC_CH_t *const channel,
1576:C:/Users/Mafish/Documents/GitHub/MAB_Driver/Libraries/XMCLib/inc\xmc_usic.h ****                                                        const uint16_t data,
1577:C:/Users/Mafish/Documents/GitHub/MAB_Driver/Libraries/XMCLib/inc\xmc_usic.h ****                                                        const uint32_t frame_length)
1578:C:/Users/Mafish/Documents/GitHub/MAB_Driver/Libraries/XMCLib/inc\xmc_usic.h **** {
1579:C:/Users/Mafish/Documents/GitHub/MAB_Driver/Libraries/XMCLib/inc\xmc_usic.h ****   channel->IN[frame_length] = data;
1580:C:/Users/Mafish/Documents/GitHub/MAB_Driver/Libraries/XMCLib/inc\xmc_usic.h **** }
1581:C:/Users/Mafish/Documents/GitHub/MAB_Driver/Libraries/XMCLib/inc\xmc_usic.h **** 
1582:C:/Users/Mafish/Documents/GitHub/MAB_Driver/Libraries/XMCLib/inc\xmc_usic.h **** /**
1583:C:/Users/Mafish/Documents/GitHub/MAB_Driver/Libraries/XMCLib/inc\xmc_usic.h ****  * @param channel Pointer to USIC channel handler of type @ref XMC_USIC_CH_t \n
1584:C:/Users/Mafish/Documents/GitHub/MAB_Driver/Libraries/XMCLib/inc\xmc_usic.h ****  * 				   \b Range: @ref XMC_USIC0_CH0, @ref XMC_USIC0_CH1 to @ref XMC_USIC2_CH1 based on device su
1585:C:/Users/Mafish/Documents/GitHub/MAB_Driver/Libraries/XMCLib/inc\xmc_usic.h ****  * @return None
1586:C:/Users/Mafish/Documents/GitHub/MAB_Driver/Libraries/XMCLib/inc\xmc_usic.h ****  *
