   1              	 .syntax unified
   2              	 .cpu cortex-m4
   3              	 .eabi_attribute 27,3
   4              	 .fpu fpv4-sp-d16
   5              	 .eabi_attribute 20,1
   6              	 .eabi_attribute 21,1
   7              	 .eabi_attribute 23,3
   8              	 .eabi_attribute 24,1
   9              	 .eabi_attribute 25,1
  10              	 .eabi_attribute 26,1
  11              	 .eabi_attribute 30,6
  12              	 .eabi_attribute 34,1
  13              	 .eabi_attribute 18,4
  14              	 .thumb
  15              	 .file "adc_measurement_adv_conf.c"
  16              	 .text
  17              	.Ltext0:
  18              	 .cfi_sections .debug_frame
  19              	 .section .text.ADC_U_event_config,"ax",%progbits
  20              	 .align 2
  21              	 .thumb
  22              	 .thumb_func
  24              	ADC_U_event_config:
  25              	.LFB246:
  26              	 .file 1 "../Dave/Generated/ADC_MEASUREMENT_ADV/adc_measurement_adv_conf.c"
   1:../Dave/Generated/ADC_MEASUREMENT_ADV/adc_measurement_adv_conf.c **** /**************************************************************************************************
   2:../Dave/Generated/ADC_MEASUREMENT_ADV/adc_measurement_adv_conf.c **** * DAVE APP Name : ADC_MEASUREMENT_ADV       APP Version: 4.0.14
   3:../Dave/Generated/ADC_MEASUREMENT_ADV/adc_measurement_adv_conf.c **** *
   4:../Dave/Generated/ADC_MEASUREMENT_ADV/adc_measurement_adv_conf.c **** * NOTE:
   5:../Dave/Generated/ADC_MEASUREMENT_ADV/adc_measurement_adv_conf.c **** * This file is generated by DAVE. Any manual modification done to this file will be lost when the c
   6:../Dave/Generated/ADC_MEASUREMENT_ADV/adc_measurement_adv_conf.c **** ***************************************************************************************************
   7:../Dave/Generated/ADC_MEASUREMENT_ADV/adc_measurement_adv_conf.c **** 
   8:../Dave/Generated/ADC_MEASUREMENT_ADV/adc_measurement_adv_conf.c **** /* @cond
   9:../Dave/Generated/ADC_MEASUREMENT_ADV/adc_measurement_adv_conf.c ****  **************************************************************************************************
  10:../Dave/Generated/ADC_MEASUREMENT_ADV/adc_measurement_adv_conf.c ****  *
  11:../Dave/Generated/ADC_MEASUREMENT_ADV/adc_measurement_adv_conf.c ****  * Copyright (c) 2015-2016, Infineon Technologies AG
  12:../Dave/Generated/ADC_MEASUREMENT_ADV/adc_measurement_adv_conf.c ****  * All rights reserved.
  13:../Dave/Generated/ADC_MEASUREMENT_ADV/adc_measurement_adv_conf.c ****  *
  14:../Dave/Generated/ADC_MEASUREMENT_ADV/adc_measurement_adv_conf.c ****  * Redistribution and use in source and binary forms, with or without modification,are permitted pr
  15:../Dave/Generated/ADC_MEASUREMENT_ADV/adc_measurement_adv_conf.c ****  * following conditions are met:
  16:../Dave/Generated/ADC_MEASUREMENT_ADV/adc_measurement_adv_conf.c ****  *
  17:../Dave/Generated/ADC_MEASUREMENT_ADV/adc_measurement_adv_conf.c ****  *   Redistributions of source code must retain the above copyright notice, this list of conditions
  18:../Dave/Generated/ADC_MEASUREMENT_ADV/adc_measurement_adv_conf.c ****  *   disclaimer.
  19:../Dave/Generated/ADC_MEASUREMENT_ADV/adc_measurement_adv_conf.c ****  *
  20:../Dave/Generated/ADC_MEASUREMENT_ADV/adc_measurement_adv_conf.c ****  *   Redistributions in binary form must reproduce the above copyright notice, this list of conditi
  21:../Dave/Generated/ADC_MEASUREMENT_ADV/adc_measurement_adv_conf.c ****  *   following disclaimer in the documentation and/or other materials provided with the distributio
  22:../Dave/Generated/ADC_MEASUREMENT_ADV/adc_measurement_adv_conf.c ****  *
  23:../Dave/Generated/ADC_MEASUREMENT_ADV/adc_measurement_adv_conf.c ****  *   Neither the name of the copyright holders nor the names of its contributors may be used to end
  24:../Dave/Generated/ADC_MEASUREMENT_ADV/adc_measurement_adv_conf.c ****  *   products derived from this software without specific prior written permission.
  25:../Dave/Generated/ADC_MEASUREMENT_ADV/adc_measurement_adv_conf.c ****  *
  26:../Dave/Generated/ADC_MEASUREMENT_ADV/adc_measurement_adv_conf.c ****  * THIS SOFTWARE IS PROVIDED BY THE COPYRIGHT HOLDERS AND CONTRIBUTORS "AS IS" AND ANY EXPRESS OR I
  27:../Dave/Generated/ADC_MEASUREMENT_ADV/adc_measurement_adv_conf.c ****  * INCLUDING, BUT NOT LIMITED TO, THE IMPLIED WARRANTIES OF MERCHANTABILITY AND FITNESS FOR A PARTI
  28:../Dave/Generated/ADC_MEASUREMENT_ADV/adc_measurement_adv_conf.c ****  * DISCLAIMED. IN NO EVENT SHALL THE COPYRIGHT HOLDER OR CONTRIBUTORS BE LIABLE  FOR ANY DIRECT, IN
  29:../Dave/Generated/ADC_MEASUREMENT_ADV/adc_measurement_adv_conf.c ****  * SPECIAL, EXEMPLARY, OR CONSEQUENTIAL DAMAGES (INCLUDING, BUT NOT LIMITED TO, PROCUREMENT OF SUBS
  30:../Dave/Generated/ADC_MEASUREMENT_ADV/adc_measurement_adv_conf.c ****  * SERVICES; LOSS OF USE, DATA, OR PROFITS; OR BUSINESS INTERRUPTION) HOWEVER CAUSED AND ON ANY THE
  31:../Dave/Generated/ADC_MEASUREMENT_ADV/adc_measurement_adv_conf.c ****  * WHETHER IN CONTRACT, STRICT LIABILITY,OR TORT (INCLUDING NEGLIGENCE OR OTHERWISE) ARISING IN ANY
  32:../Dave/Generated/ADC_MEASUREMENT_ADV/adc_measurement_adv_conf.c ****  * USE OF THIS SOFTWARE, EVEN IF ADVISED OF THE POSSIBILITY OF SUCH DAMAGE.
  33:../Dave/Generated/ADC_MEASUREMENT_ADV/adc_measurement_adv_conf.c ****  *
  34:../Dave/Generated/ADC_MEASUREMENT_ADV/adc_measurement_adv_conf.c ****  * To improve the quality of the software, users are encouraged to share modifications, enhancement
  35:../Dave/Generated/ADC_MEASUREMENT_ADV/adc_measurement_adv_conf.c ****  * with Infineon Technologies AG (dave@infineon.com).
  36:../Dave/Generated/ADC_MEASUREMENT_ADV/adc_measurement_adv_conf.c ****  **************************************************************************************************
  37:../Dave/Generated/ADC_MEASUREMENT_ADV/adc_measurement_adv_conf.c ****  *
  38:../Dave/Generated/ADC_MEASUREMENT_ADV/adc_measurement_adv_conf.c ****  * Change History
  39:../Dave/Generated/ADC_MEASUREMENT_ADV/adc_measurement_adv_conf.c ****  * --------------
  40:../Dave/Generated/ADC_MEASUREMENT_ADV/adc_measurement_adv_conf.c ****  *
  41:../Dave/Generated/ADC_MEASUREMENT_ADV/adc_measurement_adv_conf.c ****  * 2015-10-09:
  42:../Dave/Generated/ADC_MEASUREMENT_ADV/adc_measurement_adv_conf.c ****  *     - Initial version for DAVEv4.<BR>
  43:../Dave/Generated/ADC_MEASUREMENT_ADV/adc_measurement_adv_conf.c ****  *
  44:../Dave/Generated/ADC_MEASUREMENT_ADV/adc_measurement_adv_conf.c ****  * 2015-10-20:
  45:../Dave/Generated/ADC_MEASUREMENT_ADV/adc_measurement_adv_conf.c ****  *     - Documentation updated.<BR>
  46:../Dave/Generated/ADC_MEASUREMENT_ADV/adc_measurement_adv_conf.c ****  *
  47:../Dave/Generated/ADC_MEASUREMENT_ADV/adc_measurement_adv_conf.c ****  * 2015-12-15:
  48:../Dave/Generated/ADC_MEASUREMENT_ADV/adc_measurement_adv_conf.c ****  *     - Added support for XMC4300 devices.<BR>
  49:../Dave/Generated/ADC_MEASUREMENT_ADV/adc_measurement_adv_conf.c ****  *
  50:../Dave/Generated/ADC_MEASUREMENT_ADV/adc_measurement_adv_conf.c ****  * 2016-01-18:
  51:../Dave/Generated/ADC_MEASUREMENT_ADV/adc_measurement_adv_conf.c ****  *     - 1.Internal consumption of request source.<BR>
  52:../Dave/Generated/ADC_MEASUREMENT_ADV/adc_measurement_adv_conf.c ****  *     - 2.Support for synchronized conversion reduced from 8 master channels to 4 .<BR>
  53:../Dave/Generated/ADC_MEASUREMENT_ADV/adc_measurement_adv_conf.c ****  *     - 3.Converted the SetBoundary() API from public API to private API .<BR>
  54:../Dave/Generated/ADC_MEASUREMENT_ADV/adc_measurement_adv_conf.c ****  *     - 4.Updated all APIs for the Internal consumption of request source.<BR>
  55:../Dave/Generated/ADC_MEASUREMENT_ADV/adc_measurement_adv_conf.c ****  *
  56:../Dave/Generated/ADC_MEASUREMENT_ADV/adc_measurement_adv_conf.c ****  *
  57:../Dave/Generated/ADC_MEASUREMENT_ADV/adc_measurement_adv_conf.c ****  * 2016-02-05:
  58:../Dave/Generated/ADC_MEASUREMENT_ADV/adc_measurement_adv_conf.c ****  *     - Documentation updated.<BR>
  59:../Dave/Generated/ADC_MEASUREMENT_ADV/adc_measurement_adv_conf.c ****  *
  60:../Dave/Generated/ADC_MEASUREMENT_ADV/adc_measurement_adv_conf.c ****  * 2016-03-18:
  61:../Dave/Generated/ADC_MEASUREMENT_ADV/adc_measurement_adv_conf.c ****  *     - Added consumption of the GLOBAL ICLASS -1 for Sync. Conversions.<BR>
  62:../Dave/Generated/ADC_MEASUREMENT_ADV/adc_measurement_adv_conf.c ****  *     - Added consumption of the result register-0 for subtraction mode.<BR>
  63:../Dave/Generated/ADC_MEASUREMENT_ADV/adc_measurement_adv_conf.c ****  *     - Removed ADC_MEASUREMENT_ADV_SetUniformConversion().<BR>
  64:../Dave/Generated/ADC_MEASUREMENT_ADV/adc_measurement_adv_conf.c ****  *     - New API ADC_MEASUREMENT_ADV_SetIclass() added to configure the GLOBAL ICLASS for Slaves. <
  65:../Dave/Generated/ADC_MEASUREMENT_ADV/adc_measurement_adv_conf.c ****  *
  66:../Dave/Generated/ADC_MEASUREMENT_ADV/adc_measurement_adv_conf.c ****  * 2016-04-26:
  67:../Dave/Generated/ADC_MEASUREMENT_ADV/adc_measurement_adv_conf.c ****  *     - The synchronized conversion in a master slave configuration is currently not supported.<BR
  68:../Dave/Generated/ADC_MEASUREMENT_ADV/adc_measurement_adv_conf.c ****  *
  69:../Dave/Generated/ADC_MEASUREMENT_ADV/adc_measurement_adv_conf.c ****  * 2016-06-17:
  70:../Dave/Generated/ADC_MEASUREMENT_ADV/adc_measurement_adv_conf.c ****  *     - The synchronized conversion is supported.<BR>
  71:../Dave/Generated/ADC_MEASUREMENT_ADV/adc_measurement_adv_conf.c ****  *     - Modified the Sync initialization sequence to configure the EVAL bits in the slave groups.<
  72:../Dave/Generated/ADC_MEASUREMENT_ADV/adc_measurement_adv_conf.c ****  *
  73:../Dave/Generated/ADC_MEASUREMENT_ADV/adc_measurement_adv_conf.c ****  * 2016-08-18:
  74:../Dave/Generated/ADC_MEASUREMENT_ADV/adc_measurement_adv_conf.c ****  *     - Minimum sample time at low frequencies changed to incorporate Errata ADC_AI.H006 and ADC_A
  75:../Dave/Generated/ADC_MEASUREMENT_ADV/adc_measurement_adv_conf.c ****  *
  76:../Dave/Generated/ADC_MEASUREMENT_ADV/adc_measurement_adv_conf.c ****  * @endcond
  77:../Dave/Generated/ADC_MEASUREMENT_ADV/adc_measurement_adv_conf.c ****  *
  78:../Dave/Generated/ADC_MEASUREMENT_ADV/adc_measurement_adv_conf.c ****  */
  79:../Dave/Generated/ADC_MEASUREMENT_ADV/adc_measurement_adv_conf.c **** 
  80:../Dave/Generated/ADC_MEASUREMENT_ADV/adc_measurement_adv_conf.c **** /**************************************************************************************************
  81:../Dave/Generated/ADC_MEASUREMENT_ADV/adc_measurement_adv_conf.c ****  * HEADER FILES
  82:../Dave/Generated/ADC_MEASUREMENT_ADV/adc_measurement_adv_conf.c ****  **************************************************************************************************
  83:../Dave/Generated/ADC_MEASUREMENT_ADV/adc_measurement_adv_conf.c **** 
  84:../Dave/Generated/ADC_MEASUREMENT_ADV/adc_measurement_adv_conf.c **** #include "adc_measurement_adv.h"
  85:../Dave/Generated/ADC_MEASUREMENT_ADV/adc_measurement_adv_conf.c **** 
  86:../Dave/Generated/ADC_MEASUREMENT_ADV/adc_measurement_adv_conf.c **** /**************************************************************************************************
  87:../Dave/Generated/ADC_MEASUREMENT_ADV/adc_measurement_adv_conf.c ****  * EXTERN DECLARATIONS
  88:../Dave/Generated/ADC_MEASUREMENT_ADV/adc_measurement_adv_conf.c ****  **************************************************************************************************
  89:../Dave/Generated/ADC_MEASUREMENT_ADV/adc_measurement_adv_conf.c **** 
  90:../Dave/Generated/ADC_MEASUREMENT_ADV/adc_measurement_adv_conf.c **** 
  91:../Dave/Generated/ADC_MEASUREMENT_ADV/adc_measurement_adv_conf.c **** /**************************************************************************************************
  92:../Dave/Generated/ADC_MEASUREMENT_ADV/adc_measurement_adv_conf.c **** * DATA STRUCTURES
  93:../Dave/Generated/ADC_MEASUREMENT_ADV/adc_measurement_adv_conf.c **** ***************************************************************************************************
  94:../Dave/Generated/ADC_MEASUREMENT_ADV/adc_measurement_adv_conf.c **** 
  95:../Dave/Generated/ADC_MEASUREMENT_ADV/adc_measurement_adv_conf.c **** /* This function would be called in the ADC_MEASUREMENT_Init() to initialize the SR lines of the
  96:../Dave/Generated/ADC_MEASUREMENT_ADV/adc_measurement_adv_conf.c ****  * Result event/channel event.
  97:../Dave/Generated/ADC_MEASUREMENT_ADV/adc_measurement_adv_conf.c ****  */
  98:../Dave/Generated/ADC_MEASUREMENT_ADV/adc_measurement_adv_conf.c **** static void ADC_U_event_config(void)
  99:../Dave/Generated/ADC_MEASUREMENT_ADV/adc_measurement_adv_conf.c **** {
  27              	 .loc 1 99 0
  28              	 .cfi_startproc
  29              	 
  30              	 
  31 0000 80B5     	 push {r7,lr}
  32              	.LCFI0:
  33              	 .cfi_def_cfa_offset 8
  34              	 .cfi_offset 7,-8
  35              	 .cfi_offset 14,-4
  36 0002 00AF     	 add r7,sp,#0
  37              	.LCFI1:
  38              	 .cfi_def_cfa_register 7
 100:../Dave/Generated/ADC_MEASUREMENT_ADV/adc_measurement_adv_conf.c **** 
 101:../Dave/Generated/ADC_MEASUREMENT_ADV/adc_measurement_adv_conf.c **** 	/* Result Event Node Mux Configuration for Channel_A (Group-0 channel-0 Result_Register-15)*/
 102:../Dave/Generated/ADC_MEASUREMENT_ADV/adc_measurement_adv_conf.c **** 	XMC_VADC_GROUP_SetResultInterruptNode(VADC_G0, 15U, XMC_VADC_SR_GROUP_SR0);
  39              	 .loc 1 102 0
  40 0004 0248     	 ldr r0,.L2
  41 0006 0F21     	 movs r1,#15
  42 0008 0022     	 movs r2,#0
  43 000a FFF7FEFF 	 bl XMC_VADC_GROUP_SetResultInterruptNode
 103:../Dave/Generated/ADC_MEASUREMENT_ADV/adc_measurement_adv_conf.c **** 
 104:../Dave/Generated/ADC_MEASUREMENT_ADV/adc_measurement_adv_conf.c **** }
  44              	 .loc 1 104 0
  45 000e 80BD     	 pop {r7,pc}
  46              	.L3:
  47              	 .align 2
  48              	.L2:
  49 0010 00440040 	 .word 1073759232
  50              	 .cfi_endproc
  51              	.LFE246:
  53              	 .section .rodata.ADC_U_Channel_A_ch_config,"a",%progbits
  54              	 .align 2
  57              	ADC_U_Channel_A_ch_config:
  58 0000 00       	 .byte 0
  59 0001 04       	 .byte 4
  60 0002 2F       	 .byte 47
  61 0003 00       	 .byte 0
  62 0004 00000000 	 .word 0
  63 0008 01       	 .byte 1
  64 0009 FF       	 .byte -1
  65 000a 0000     	 .space 2
  66              	 .section .rodata.ADC_U_Channel_A_res_config,"a",%progbits
  67              	 .align 2
  70              	ADC_U_Channel_A_res_config:
  71 0000 0000     	 .space 2
  72 0002 00       	 .byte 0
  73 0003 80       	 .byte 128
  74              	 .global ADC_U_Channel_A_handle
  75              	 .section .rodata.ADC_U_Channel_A_handle,"a",%progbits
  76              	 .align 2
  79              	ADC_U_Channel_A_handle:
  80 0000 00000000 	 .word ADC_U_Channel_A_ch_config
  81 0004 00000000 	 .word ADC_U_Channel_A_res_config
  82 0008 00       	 .byte 0
  83 0009 00       	 .byte 0
  84 000a 0000     	 .space 2
  85              	 .section .rodata.ADC_U_Channel_A_queue_entry_0,"a",%progbits
  86              	 .align 2
  89              	ADC_U_Channel_A_queue_entry_0:
  90 0000 00000000 	 .word 0
  91 0004 00       	 .byte 0
  92 0005 00       	 .byte 0
  93 0006 01       	 .byte 1
  94 0007 01       	 .byte 1
  95 0008 00       	 .byte 0
  96 0009 00       	 .byte 0
  97 000a 0000     	 .space 2
  98              	 .section .data.ADC_U_queue_entries,"aw",%progbits
  99              	 .align 2
 102              	ADC_U_queue_entries:
 103 0000 00000000 	 .word ADC_U_Channel_A_queue_entry_0
 104              	 .section .data.ADC_U_channel_array,"aw",%progbits
 105              	 .align 2
 108              	ADC_U_channel_array:
 109 0000 00000000 	 .word ADC_U_Channel_A_handle
 110              	 .section .data.ADC_U_initialization_status,"aw",%progbits
 113              	ADC_U_initialization_status:
 114 0000 02       	 .byte 2
 115              	 .global ADC_U
 116              	 .section .rodata.ADC_U,"a",%progbits
 117              	 .align 2
 120              	ADC_U:
 121 0000 00000000 	 .word ADC_U_channel_array
 122 0004 00000000 	 .word ADC_U_queue_entries
 123 0008 00000000 	 .word ADC_U_event_config
 124 000c 00000000 	 .word ADC_QUEUE_0
 125 0010 00000000 	 .word ADC_U_initialization_status
 126 0014 02       	 .byte 2
 127 0015 00       	 .byte 0
 128 0016 01       	 .byte 1
 129 0017 01       	 .byte 1
 130 0018 01       	 .byte 1
 131 0019 000000   	 .space 3
 132              	 .section .text.ADC_V_event_config,"ax",%progbits
 133              	 .align 2
 134              	 .thumb
 135              	 .thumb_func
 137              	ADC_V_event_config:
 138              	.LFB247:
 105:../Dave/Generated/ADC_MEASUREMENT_ADV/adc_measurement_adv_conf.c **** 
 106:../Dave/Generated/ADC_MEASUREMENT_ADV/adc_measurement_adv_conf.c **** 
 107:../Dave/Generated/ADC_MEASUREMENT_ADV/adc_measurement_adv_conf.c **** 
 108:../Dave/Generated/ADC_MEASUREMENT_ADV/adc_measurement_adv_conf.c **** /********************************* Channel_A ADC Channel configuration structure ******************
 109:../Dave/Generated/ADC_MEASUREMENT_ADV/adc_measurement_adv_conf.c **** static const XMC_VADC_CHANNEL_CONFIG_t  ADC_U_Channel_A_ch_config =
 110:../Dave/Generated/ADC_MEASUREMENT_ADV/adc_measurement_adv_conf.c **** {
 111:../Dave/Generated/ADC_MEASUREMENT_ADV/adc_measurement_adv_conf.c ****   .input_class                = (uint32_t) XMC_VADC_CHANNEL_CONV_GROUP_CLASS0,
 112:../Dave/Generated/ADC_MEASUREMENT_ADV/adc_measurement_adv_conf.c ****   .lower_boundary_select      = (uint32_t) XMC_VADC_CHANNEL_BOUNDARY_GROUP_BOUND0,
 113:../Dave/Generated/ADC_MEASUREMENT_ADV/adc_measurement_adv_conf.c ****   .upper_boundary_select      = (uint32_t) XMC_VADC_CHANNEL_BOUNDARY_GROUP_BOUND0,
 114:../Dave/Generated/ADC_MEASUREMENT_ADV/adc_measurement_adv_conf.c ****   .event_gen_criteria         = (uint32_t) XMC_VADC_CHANNEL_EVGEN_NEVER,
 115:../Dave/Generated/ADC_MEASUREMENT_ADV/adc_measurement_adv_conf.c ****   .sync_conversion            = (uint32_t) true,                            /* Sync feature disable
 116:../Dave/Generated/ADC_MEASUREMENT_ADV/adc_measurement_adv_conf.c ****   .alternate_reference        = (uint32_t) XMC_VADC_CHANNEL_REF_INTREF,  /* Internal reference sele
 117:../Dave/Generated/ADC_MEASUREMENT_ADV/adc_measurement_adv_conf.c ****   .result_reg_number          = (uint32_t) 15,                           /* GxRES[15] selected */
 118:../Dave/Generated/ADC_MEASUREMENT_ADV/adc_measurement_adv_conf.c ****   .result_alignment           = (uint32_t) XMC_VADC_RESULT_ALIGN_RIGHT,  /* Result alignment - Righ
 119:../Dave/Generated/ADC_MEASUREMENT_ADV/adc_measurement_adv_conf.c ****   .broken_wire_detect_channel = (uint32_t) XMC_VADC_CHANNEL_BWDCH_VAGND, /* No Broken wire mode sel
 120:../Dave/Generated/ADC_MEASUREMENT_ADV/adc_measurement_adv_conf.c ****   .broken_wire_detect         = (uint32_t) false,                     /* No Broken wire detection*/
 121:../Dave/Generated/ADC_MEASUREMENT_ADV/adc_measurement_adv_conf.c ****   .bfl                        = (uint32_t) 0,                            /* No Boundary flag */
 122:../Dave/Generated/ADC_MEASUREMENT_ADV/adc_measurement_adv_conf.c ****   .channel_priority           = (uint32_t) true,                      /* Highest Priority: 1 select
 123:../Dave/Generated/ADC_MEASUREMENT_ADV/adc_measurement_adv_conf.c ****   .alias_channel              = (int8_t) XMC_VADC_CHANNEL_ALIAS_DISABLED,   /* ALIAS is Disabled*/
 124:../Dave/Generated/ADC_MEASUREMENT_ADV/adc_measurement_adv_conf.c **** };
 125:../Dave/Generated/ADC_MEASUREMENT_ADV/adc_measurement_adv_conf.c **** 
 126:../Dave/Generated/ADC_MEASUREMENT_ADV/adc_measurement_adv_conf.c **** 
 127:../Dave/Generated/ADC_MEASUREMENT_ADV/adc_measurement_adv_conf.c **** /*Channel_A Result configuration structure*/
 128:../Dave/Generated/ADC_MEASUREMENT_ADV/adc_measurement_adv_conf.c **** static const XMC_VADC_RESULT_CONFIG_t ADC_U_Channel_A_res_config =
 129:../Dave/Generated/ADC_MEASUREMENT_ADV/adc_measurement_adv_conf.c **** {
 130:../Dave/Generated/ADC_MEASUREMENT_ADV/adc_measurement_adv_conf.c ****   .data_reduction_control  = (uint32_t) 0,
 131:../Dave/Generated/ADC_MEASUREMENT_ADV/adc_measurement_adv_conf.c ****   .post_processing_mode    = (uint32_t) XMC_VADC_DMM_REDUCTION_MODE,
 132:../Dave/Generated/ADC_MEASUREMENT_ADV/adc_measurement_adv_conf.c ****   .wait_for_read_mode      = (uint32_t) false,
 133:../Dave/Generated/ADC_MEASUREMENT_ADV/adc_measurement_adv_conf.c ****   .part_of_fifo            = (uint32_t) false , /* No FIFO */
 134:../Dave/Generated/ADC_MEASUREMENT_ADV/adc_measurement_adv_conf.c ****   .event_gen_enable        = (uint32_t) true   /* Result event Enabled*/
 135:../Dave/Generated/ADC_MEASUREMENT_ADV/adc_measurement_adv_conf.c **** };
 136:../Dave/Generated/ADC_MEASUREMENT_ADV/adc_measurement_adv_conf.c **** 
 137:../Dave/Generated/ADC_MEASUREMENT_ADV/adc_measurement_adv_conf.c **** /* Channel_A ADC channel Handle */
 138:../Dave/Generated/ADC_MEASUREMENT_ADV/adc_measurement_adv_conf.c **** const ADC_MEASUREMENT_ADV_CHANNEL_t ADC_U_Channel_A_handle =
 139:../Dave/Generated/ADC_MEASUREMENT_ADV/adc_measurement_adv_conf.c **** {
 140:../Dave/Generated/ADC_MEASUREMENT_ADV/adc_measurement_adv_conf.c ****   .ch_num        = (uint8_t) 0,
 141:../Dave/Generated/ADC_MEASUREMENT_ADV/adc_measurement_adv_conf.c ****   .group_index   = (uint8_t) 0,
 142:../Dave/Generated/ADC_MEASUREMENT_ADV/adc_measurement_adv_conf.c ****   .ch_handle     = (XMC_VADC_CHANNEL_CONFIG_t*) &ADC_U_Channel_A_ch_config,
 143:../Dave/Generated/ADC_MEASUREMENT_ADV/adc_measurement_adv_conf.c ****   .res_handle[0] = (XMC_VADC_RESULT_CONFIG_t*) &ADC_U_Channel_A_res_config,   
 144:../Dave/Generated/ADC_MEASUREMENT_ADV/adc_measurement_adv_conf.c **** };
 145:../Dave/Generated/ADC_MEASUREMENT_ADV/adc_measurement_adv_conf.c **** 
 146:../Dave/Generated/ADC_MEASUREMENT_ADV/adc_measurement_adv_conf.c **** 
 147:../Dave/Generated/ADC_MEASUREMENT_ADV/adc_measurement_adv_conf.c **** static const ADC_QUEUE_ENTRY_t ADC_U_Channel_A_queue_entry_0 =
 148:../Dave/Generated/ADC_MEASUREMENT_ADV/adc_measurement_adv_conf.c **** {
 149:../Dave/Generated/ADC_MEASUREMENT_ADV/adc_measurement_adv_conf.c ****   .channel_number        = (uint8_t) 0,
 150:../Dave/Generated/ADC_MEASUREMENT_ADV/adc_measurement_adv_conf.c ****   .queue_position        = (uint8_t) VADC_QUEUE_GROUP_0_POSITION_0,
 151:../Dave/Generated/ADC_MEASUREMENT_ADV/adc_measurement_adv_conf.c ****   .trigger_needed        = (bool) true,
 152:../Dave/Generated/ADC_MEASUREMENT_ADV/adc_measurement_adv_conf.c ****   .refill_needed         = (bool) true,
 153:../Dave/Generated/ADC_MEASUREMENT_ADV/adc_measurement_adv_conf.c ****   .ch_event_notification = (bool) false,
 154:../Dave/Generated/ADC_MEASUREMENT_ADV/adc_measurement_adv_conf.c ****   .rs_event_notification = (bool) false,
 155:../Dave/Generated/ADC_MEASUREMENT_ADV/adc_measurement_adv_conf.c ****   .adc_event_callback    = NULL,
 156:../Dave/Generated/ADC_MEASUREMENT_ADV/adc_measurement_adv_conf.c **** };
 157:../Dave/Generated/ADC_MEASUREMENT_ADV/adc_measurement_adv_conf.c **** 
 158:../Dave/Generated/ADC_MEASUREMENT_ADV/adc_measurement_adv_conf.c **** 
 159:../Dave/Generated/ADC_MEASUREMENT_ADV/adc_measurement_adv_conf.c **** static const ADC_QUEUE_ENTRY_t *ADC_U_queue_entries[] =
 160:../Dave/Generated/ADC_MEASUREMENT_ADV/adc_measurement_adv_conf.c **** {
 161:../Dave/Generated/ADC_MEASUREMENT_ADV/adc_measurement_adv_conf.c ****   (ADC_QUEUE_ENTRY_t*) (void *) &ADC_U_Channel_A_queue_entry_0,
 162:../Dave/Generated/ADC_MEASUREMENT_ADV/adc_measurement_adv_conf.c **** };
 163:../Dave/Generated/ADC_MEASUREMENT_ADV/adc_measurement_adv_conf.c **** 
 164:../Dave/Generated/ADC_MEASUREMENT_ADV/adc_measurement_adv_conf.c **** 
 165:../Dave/Generated/ADC_MEASUREMENT_ADV/adc_measurement_adv_conf.c **** 
 166:../Dave/Generated/ADC_MEASUREMENT_ADV/adc_measurement_adv_conf.c **** static const ADC_MEASUREMENT_ADV_CHANNEL_t *ADC_U_channel_array[] =
 167:../Dave/Generated/ADC_MEASUREMENT_ADV/adc_measurement_adv_conf.c **** {
 168:../Dave/Generated/ADC_MEASUREMENT_ADV/adc_measurement_adv_conf.c ****   (ADC_MEASUREMENT_ADV_CHANNEL_t *) (void*) &ADC_U_Channel_A_handle,
 169:../Dave/Generated/ADC_MEASUREMENT_ADV/adc_measurement_adv_conf.c **** 
 170:../Dave/Generated/ADC_MEASUREMENT_ADV/adc_measurement_adv_conf.c **** };
 171:../Dave/Generated/ADC_MEASUREMENT_ADV/adc_measurement_adv_conf.c **** 
 172:../Dave/Generated/ADC_MEASUREMENT_ADV/adc_measurement_adv_conf.c **** static ADC_MEASUREMENT_ADV_STATUS_t ADC_U_initialization_status = ADC_MEASUREMENT_ADV_STATUS_UNINIT
 173:../Dave/Generated/ADC_MEASUREMENT_ADV/adc_measurement_adv_conf.c **** 
 174:../Dave/Generated/ADC_MEASUREMENT_ADV/adc_measurement_adv_conf.c **** const ADC_MEASUREMENT_ADV_t ADC_U =
 175:../Dave/Generated/ADC_MEASUREMENT_ADV/adc_measurement_adv_conf.c **** {
 176:../Dave/Generated/ADC_MEASUREMENT_ADV/adc_measurement_adv_conf.c ****   .channel_array            = ADC_U_channel_array,
 177:../Dave/Generated/ADC_MEASUREMENT_ADV/adc_measurement_adv_conf.c ****   .queue_entries            = ADC_U_queue_entries,
 178:../Dave/Generated/ADC_MEASUREMENT_ADV/adc_measurement_adv_conf.c ****   .event_config               = (ADC_U_event_config),
 179:../Dave/Generated/ADC_MEASUREMENT_ADV/adc_measurement_adv_conf.c ****   .queue_handle             = (ADC_QUEUE_t *) (void *) &ADC_QUEUE_0,
 180:../Dave/Generated/ADC_MEASUREMENT_ADV/adc_measurement_adv_conf.c ****   .init_state               = &ADC_U_initialization_status,
 181:../Dave/Generated/ADC_MEASUREMENT_ADV/adc_measurement_adv_conf.c ****   .req_src                  = ADC_MEASUREMENT_ADV_REQUEST_SOURCE_QUEUE,  
 182:../Dave/Generated/ADC_MEASUREMENT_ADV/adc_measurement_adv_conf.c ****   .group_index              = (uint8_t) 0, 
 183:../Dave/Generated/ADC_MEASUREMENT_ADV/adc_measurement_adv_conf.c ****   .total_number_of_entries  = (uint8_t) 1,
 184:../Dave/Generated/ADC_MEASUREMENT_ADV/adc_measurement_adv_conf.c ****   .total_number_of_channels = (uint8_t) 1,
 185:../Dave/Generated/ADC_MEASUREMENT_ADV/adc_measurement_adv_conf.c ****   .start_at_initialization  = (bool) true  
 186:../Dave/Generated/ADC_MEASUREMENT_ADV/adc_measurement_adv_conf.c **** };
 187:../Dave/Generated/ADC_MEASUREMENT_ADV/adc_measurement_adv_conf.c **** 
 188:../Dave/Generated/ADC_MEASUREMENT_ADV/adc_measurement_adv_conf.c **** /**************************************************************************************************
 189:../Dave/Generated/ADC_MEASUREMENT_ADV/adc_measurement_adv_conf.c **** 
 190:../Dave/Generated/ADC_MEASUREMENT_ADV/adc_measurement_adv_conf.c **** /* This function would be called in the ADC_MEASUREMENT_Init() to initialize the SR lines of the
 191:../Dave/Generated/ADC_MEASUREMENT_ADV/adc_measurement_adv_conf.c ****  * Result event/channel event.
 192:../Dave/Generated/ADC_MEASUREMENT_ADV/adc_measurement_adv_conf.c ****  */
 193:../Dave/Generated/ADC_MEASUREMENT_ADV/adc_measurement_adv_conf.c **** static void ADC_V_event_config(void)
 194:../Dave/Generated/ADC_MEASUREMENT_ADV/adc_measurement_adv_conf.c **** {
 139              	 .loc 1 194 0
 140              	 .cfi_startproc
 141              	 
 142              	 
 143 0000 80B5     	 push {r7,lr}
 144              	.LCFI2:
 145              	 .cfi_def_cfa_offset 8
 146              	 .cfi_offset 7,-8
 147              	 .cfi_offset 14,-4
 148 0002 00AF     	 add r7,sp,#0
 149              	.LCFI3:
 150              	 .cfi_def_cfa_register 7
 195:../Dave/Generated/ADC_MEASUREMENT_ADV/adc_measurement_adv_conf.c **** 
 196:../Dave/Generated/ADC_MEASUREMENT_ADV/adc_measurement_adv_conf.c **** 	/* Result Event Node Mux Configuration for Channel_A (Group-1 channel-2 Result_Register-3)*/
 197:../Dave/Generated/ADC_MEASUREMENT_ADV/adc_measurement_adv_conf.c **** 	XMC_VADC_GROUP_SetResultInterruptNode(VADC_G1, 3U, XMC_VADC_SR_GROUP_SR0);
 151              	 .loc 1 197 0
 152 0004 0248     	 ldr r0,.L5
 153 0006 0321     	 movs r1,#3
 154 0008 0022     	 movs r2,#0
 155 000a FFF7FEFF 	 bl XMC_VADC_GROUP_SetResultInterruptNode
 198:../Dave/Generated/ADC_MEASUREMENT_ADV/adc_measurement_adv_conf.c **** 
 199:../Dave/Generated/ADC_MEASUREMENT_ADV/adc_measurement_adv_conf.c **** }
 156              	 .loc 1 199 0
 157 000e 80BD     	 pop {r7,pc}
 158              	.L6:
 159              	 .align 2
 160              	.L5:
 161 0010 00480040 	 .word 1073760256
 162              	 .cfi_endproc
 163              	.LFE247:
 165              	 .section .rodata.ADC_V_Channel_A_ch_config,"a",%progbits
 166              	 .align 2
 169              	ADC_V_Channel_A_ch_config:
 170 0000 00       	 .byte 0
 171 0001 00       	 .byte 0
 172 0002 23       	 .byte 35
 173 0003 00       	 .byte 0
 174 0004 00000000 	 .word 0
 175 0008 01       	 .byte 1
 176 0009 FF       	 .byte -1
 177 000a 0000     	 .space 2
 178              	 .section .rodata.ADC_V_Channel_A_res_config,"a",%progbits
 179              	 .align 2
 182              	ADC_V_Channel_A_res_config:
 183 0000 0000     	 .space 2
 184 0002 00       	 .byte 0
 185 0003 80       	 .byte 128
 186              	 .global ADC_V_Channel_A_handle
 187              	 .section .rodata.ADC_V_Channel_A_handle,"a",%progbits
 188              	 .align 2
 191              	ADC_V_Channel_A_handle:
 192 0000 00000000 	 .word ADC_V_Channel_A_ch_config
 193 0004 00000000 	 .word ADC_V_Channel_A_res_config
 194 0008 01       	 .byte 1
 195 0009 02       	 .byte 2
 196 000a 0000     	 .space 2
 197              	 .section .rodata.ADC_V_Channel_A_queue_entry_0,"a",%progbits
 198              	 .align 2
 201              	ADC_V_Channel_A_queue_entry_0:
 202 0000 00000000 	 .word 0
 203 0004 00       	 .byte 0
 204 0005 02       	 .byte 2
 205 0006 01       	 .byte 1
 206 0007 01       	 .byte 1
 207 0008 00       	 .byte 0
 208 0009 00       	 .byte 0
 209 000a 0000     	 .space 2
 210              	 .section .data.ADC_V_queue_entries,"aw",%progbits
 211              	 .align 2
 214              	ADC_V_queue_entries:
 215 0000 00000000 	 .word ADC_V_Channel_A_queue_entry_0
 216              	 .section .data.ADC_V_channel_array,"aw",%progbits
 217              	 .align 2
 220              	ADC_V_channel_array:
 221 0000 00000000 	 .word ADC_V_Channel_A_handle
 222              	 .section .data.ADC_V_initialization_status,"aw",%progbits
 225              	ADC_V_initialization_status:
 226 0000 02       	 .byte 2
 227              	 .global ADC_V
 228              	 .section .rodata.ADC_V,"a",%progbits
 229              	 .align 2
 232              	ADC_V:
 233 0000 00000000 	 .word ADC_V_channel_array
 234 0004 00000000 	 .word ADC_V_queue_entries
 235 0008 00000000 	 .word ADC_V_event_config
 236 000c 00000000 	 .word ADC_QUEUE_1
 237 0010 00000000 	 .word ADC_V_initialization_status
 238 0014 02       	 .byte 2
 239 0015 01       	 .byte 1
 240 0016 01       	 .byte 1
 241 0017 01       	 .byte 1
 242 0018 01       	 .byte 1
 243 0019 000000   	 .space 3
 244              	 .section .text.ADC_W_event_config,"ax",%progbits
 245              	 .align 2
 246              	 .thumb
 247              	 .thumb_func
 249              	ADC_W_event_config:
 250              	.LFB248:
 200:../Dave/Generated/ADC_MEASUREMENT_ADV/adc_measurement_adv_conf.c **** 
 201:../Dave/Generated/ADC_MEASUREMENT_ADV/adc_measurement_adv_conf.c **** 
 202:../Dave/Generated/ADC_MEASUREMENT_ADV/adc_measurement_adv_conf.c **** 
 203:../Dave/Generated/ADC_MEASUREMENT_ADV/adc_measurement_adv_conf.c **** /********************************* Channel_A ADC Channel configuration structure ******************
 204:../Dave/Generated/ADC_MEASUREMENT_ADV/adc_measurement_adv_conf.c **** static const XMC_VADC_CHANNEL_CONFIG_t  ADC_V_Channel_A_ch_config =
 205:../Dave/Generated/ADC_MEASUREMENT_ADV/adc_measurement_adv_conf.c **** {
 206:../Dave/Generated/ADC_MEASUREMENT_ADV/adc_measurement_adv_conf.c ****   .input_class                = (uint32_t) XMC_VADC_CHANNEL_CONV_GROUP_CLASS0,
 207:../Dave/Generated/ADC_MEASUREMENT_ADV/adc_measurement_adv_conf.c ****   .lower_boundary_select      = (uint32_t) XMC_VADC_CHANNEL_BOUNDARY_GROUP_BOUND0,
 208:../Dave/Generated/ADC_MEASUREMENT_ADV/adc_measurement_adv_conf.c ****   .upper_boundary_select      = (uint32_t) XMC_VADC_CHANNEL_BOUNDARY_GROUP_BOUND0,
 209:../Dave/Generated/ADC_MEASUREMENT_ADV/adc_measurement_adv_conf.c ****   .event_gen_criteria         = (uint32_t) XMC_VADC_CHANNEL_EVGEN_NEVER,
 210:../Dave/Generated/ADC_MEASUREMENT_ADV/adc_measurement_adv_conf.c ****   .sync_conversion            = (uint32_t) false,                            /* Sync feature disabl
 211:../Dave/Generated/ADC_MEASUREMENT_ADV/adc_measurement_adv_conf.c ****   .alternate_reference        = (uint32_t) XMC_VADC_CHANNEL_REF_INTREF,  /* Internal reference sele
 212:../Dave/Generated/ADC_MEASUREMENT_ADV/adc_measurement_adv_conf.c ****   .result_reg_number          = (uint32_t) 3,                           /* GxRES[3] selected */
 213:../Dave/Generated/ADC_MEASUREMENT_ADV/adc_measurement_adv_conf.c ****   .result_alignment           = (uint32_t) XMC_VADC_RESULT_ALIGN_RIGHT,  /* Result alignment - Righ
 214:../Dave/Generated/ADC_MEASUREMENT_ADV/adc_measurement_adv_conf.c ****   .broken_wire_detect_channel = (uint32_t) XMC_VADC_CHANNEL_BWDCH_VAGND, /* No Broken wire mode sel
 215:../Dave/Generated/ADC_MEASUREMENT_ADV/adc_measurement_adv_conf.c ****   .broken_wire_detect         = (uint32_t) false,                     /* No Broken wire detection*/
 216:../Dave/Generated/ADC_MEASUREMENT_ADV/adc_measurement_adv_conf.c ****   .bfl                        = (uint32_t) 0,                            /* No Boundary flag */
 217:../Dave/Generated/ADC_MEASUREMENT_ADV/adc_measurement_adv_conf.c ****   .channel_priority           = (uint32_t) true,                      /* Highest Priority: 1 select
 218:../Dave/Generated/ADC_MEASUREMENT_ADV/adc_measurement_adv_conf.c ****   .alias_channel              = (int8_t) XMC_VADC_CHANNEL_ALIAS_DISABLED,   /* ALIAS is Disabled*/
 219:../Dave/Generated/ADC_MEASUREMENT_ADV/adc_measurement_adv_conf.c **** };
 220:../Dave/Generated/ADC_MEASUREMENT_ADV/adc_measurement_adv_conf.c **** 
 221:../Dave/Generated/ADC_MEASUREMENT_ADV/adc_measurement_adv_conf.c **** 
 222:../Dave/Generated/ADC_MEASUREMENT_ADV/adc_measurement_adv_conf.c **** /*Channel_A Result configuration structure*/
 223:../Dave/Generated/ADC_MEASUREMENT_ADV/adc_measurement_adv_conf.c **** static const XMC_VADC_RESULT_CONFIG_t ADC_V_Channel_A_res_config =
 224:../Dave/Generated/ADC_MEASUREMENT_ADV/adc_measurement_adv_conf.c **** {
 225:../Dave/Generated/ADC_MEASUREMENT_ADV/adc_measurement_adv_conf.c ****   .data_reduction_control  = (uint32_t) 0,
 226:../Dave/Generated/ADC_MEASUREMENT_ADV/adc_measurement_adv_conf.c ****   .post_processing_mode    = (uint32_t) XMC_VADC_DMM_REDUCTION_MODE,
 227:../Dave/Generated/ADC_MEASUREMENT_ADV/adc_measurement_adv_conf.c ****   .wait_for_read_mode      = (uint32_t) false,
 228:../Dave/Generated/ADC_MEASUREMENT_ADV/adc_measurement_adv_conf.c ****   .part_of_fifo            = (uint32_t) false , /* No FIFO */
 229:../Dave/Generated/ADC_MEASUREMENT_ADV/adc_measurement_adv_conf.c ****   .event_gen_enable        = (uint32_t) true   /* Result event Enabled*/
 230:../Dave/Generated/ADC_MEASUREMENT_ADV/adc_measurement_adv_conf.c **** };
 231:../Dave/Generated/ADC_MEASUREMENT_ADV/adc_measurement_adv_conf.c **** 
 232:../Dave/Generated/ADC_MEASUREMENT_ADV/adc_measurement_adv_conf.c **** /* Channel_A ADC channel Handle */
 233:../Dave/Generated/ADC_MEASUREMENT_ADV/adc_measurement_adv_conf.c **** const ADC_MEASUREMENT_ADV_CHANNEL_t ADC_V_Channel_A_handle =
 234:../Dave/Generated/ADC_MEASUREMENT_ADV/adc_measurement_adv_conf.c **** {
 235:../Dave/Generated/ADC_MEASUREMENT_ADV/adc_measurement_adv_conf.c ****   .ch_num        = (uint8_t) 2,
 236:../Dave/Generated/ADC_MEASUREMENT_ADV/adc_measurement_adv_conf.c ****   .group_index   = (uint8_t) 1,
 237:../Dave/Generated/ADC_MEASUREMENT_ADV/adc_measurement_adv_conf.c ****   .ch_handle     = (XMC_VADC_CHANNEL_CONFIG_t*) &ADC_V_Channel_A_ch_config,
 238:../Dave/Generated/ADC_MEASUREMENT_ADV/adc_measurement_adv_conf.c ****   .res_handle[0] = (XMC_VADC_RESULT_CONFIG_t*) &ADC_V_Channel_A_res_config,   
 239:../Dave/Generated/ADC_MEASUREMENT_ADV/adc_measurement_adv_conf.c **** };
 240:../Dave/Generated/ADC_MEASUREMENT_ADV/adc_measurement_adv_conf.c **** 
 241:../Dave/Generated/ADC_MEASUREMENT_ADV/adc_measurement_adv_conf.c **** 
 242:../Dave/Generated/ADC_MEASUREMENT_ADV/adc_measurement_adv_conf.c **** static const ADC_QUEUE_ENTRY_t ADC_V_Channel_A_queue_entry_0 =
 243:../Dave/Generated/ADC_MEASUREMENT_ADV/adc_measurement_adv_conf.c **** {
 244:../Dave/Generated/ADC_MEASUREMENT_ADV/adc_measurement_adv_conf.c ****   .channel_number        = (uint8_t) 2,
 245:../Dave/Generated/ADC_MEASUREMENT_ADV/adc_measurement_adv_conf.c ****   .queue_position        = (uint8_t) VADC_QUEUE_GROUP_1_POSITION_0,
 246:../Dave/Generated/ADC_MEASUREMENT_ADV/adc_measurement_adv_conf.c ****   .trigger_needed        = (bool) true,
 247:../Dave/Generated/ADC_MEASUREMENT_ADV/adc_measurement_adv_conf.c ****   .refill_needed         = (bool) true,
 248:../Dave/Generated/ADC_MEASUREMENT_ADV/adc_measurement_adv_conf.c ****   .ch_event_notification = (bool) false,
 249:../Dave/Generated/ADC_MEASUREMENT_ADV/adc_measurement_adv_conf.c ****   .rs_event_notification = (bool) false,
 250:../Dave/Generated/ADC_MEASUREMENT_ADV/adc_measurement_adv_conf.c ****   .adc_event_callback    = NULL,
 251:../Dave/Generated/ADC_MEASUREMENT_ADV/adc_measurement_adv_conf.c **** };
 252:../Dave/Generated/ADC_MEASUREMENT_ADV/adc_measurement_adv_conf.c **** 
 253:../Dave/Generated/ADC_MEASUREMENT_ADV/adc_measurement_adv_conf.c **** 
 254:../Dave/Generated/ADC_MEASUREMENT_ADV/adc_measurement_adv_conf.c **** static const ADC_QUEUE_ENTRY_t *ADC_V_queue_entries[] =
 255:../Dave/Generated/ADC_MEASUREMENT_ADV/adc_measurement_adv_conf.c **** {
 256:../Dave/Generated/ADC_MEASUREMENT_ADV/adc_measurement_adv_conf.c ****   (ADC_QUEUE_ENTRY_t*) (void *) &ADC_V_Channel_A_queue_entry_0,
 257:../Dave/Generated/ADC_MEASUREMENT_ADV/adc_measurement_adv_conf.c **** };
 258:../Dave/Generated/ADC_MEASUREMENT_ADV/adc_measurement_adv_conf.c **** 
 259:../Dave/Generated/ADC_MEASUREMENT_ADV/adc_measurement_adv_conf.c **** 
 260:../Dave/Generated/ADC_MEASUREMENT_ADV/adc_measurement_adv_conf.c **** 
 261:../Dave/Generated/ADC_MEASUREMENT_ADV/adc_measurement_adv_conf.c **** static const ADC_MEASUREMENT_ADV_CHANNEL_t *ADC_V_channel_array[] =
 262:../Dave/Generated/ADC_MEASUREMENT_ADV/adc_measurement_adv_conf.c **** {
 263:../Dave/Generated/ADC_MEASUREMENT_ADV/adc_measurement_adv_conf.c ****   (ADC_MEASUREMENT_ADV_CHANNEL_t *) (void*) &ADC_V_Channel_A_handle,
 264:../Dave/Generated/ADC_MEASUREMENT_ADV/adc_measurement_adv_conf.c **** 
 265:../Dave/Generated/ADC_MEASUREMENT_ADV/adc_measurement_adv_conf.c **** };
 266:../Dave/Generated/ADC_MEASUREMENT_ADV/adc_measurement_adv_conf.c **** 
 267:../Dave/Generated/ADC_MEASUREMENT_ADV/adc_measurement_adv_conf.c **** static ADC_MEASUREMENT_ADV_STATUS_t ADC_V_initialization_status = ADC_MEASUREMENT_ADV_STATUS_UNINIT
 268:../Dave/Generated/ADC_MEASUREMENT_ADV/adc_measurement_adv_conf.c **** 
 269:../Dave/Generated/ADC_MEASUREMENT_ADV/adc_measurement_adv_conf.c **** const ADC_MEASUREMENT_ADV_t ADC_V =
 270:../Dave/Generated/ADC_MEASUREMENT_ADV/adc_measurement_adv_conf.c **** {
 271:../Dave/Generated/ADC_MEASUREMENT_ADV/adc_measurement_adv_conf.c ****   .channel_array            = ADC_V_channel_array,
 272:../Dave/Generated/ADC_MEASUREMENT_ADV/adc_measurement_adv_conf.c ****   .queue_entries            = ADC_V_queue_entries,
 273:../Dave/Generated/ADC_MEASUREMENT_ADV/adc_measurement_adv_conf.c ****   .event_config               = (ADC_V_event_config),
 274:../Dave/Generated/ADC_MEASUREMENT_ADV/adc_measurement_adv_conf.c ****   .queue_handle             = (ADC_QUEUE_t *) (void *) &ADC_QUEUE_1,
 275:../Dave/Generated/ADC_MEASUREMENT_ADV/adc_measurement_adv_conf.c ****   .init_state               = &ADC_V_initialization_status,
 276:../Dave/Generated/ADC_MEASUREMENT_ADV/adc_measurement_adv_conf.c ****   .req_src                  = ADC_MEASUREMENT_ADV_REQUEST_SOURCE_QUEUE,  
 277:../Dave/Generated/ADC_MEASUREMENT_ADV/adc_measurement_adv_conf.c ****   .group_index              = (uint8_t) 1, 
 278:../Dave/Generated/ADC_MEASUREMENT_ADV/adc_measurement_adv_conf.c ****   .total_number_of_entries  = (uint8_t) 1,
 279:../Dave/Generated/ADC_MEASUREMENT_ADV/adc_measurement_adv_conf.c ****   .total_number_of_channels = (uint8_t) 1,
 280:../Dave/Generated/ADC_MEASUREMENT_ADV/adc_measurement_adv_conf.c ****   .start_at_initialization  = (bool) true  
 281:../Dave/Generated/ADC_MEASUREMENT_ADV/adc_measurement_adv_conf.c **** };
 282:../Dave/Generated/ADC_MEASUREMENT_ADV/adc_measurement_adv_conf.c **** 
 283:../Dave/Generated/ADC_MEASUREMENT_ADV/adc_measurement_adv_conf.c **** /**************************************************************************************************
 284:../Dave/Generated/ADC_MEASUREMENT_ADV/adc_measurement_adv_conf.c **** 
 285:../Dave/Generated/ADC_MEASUREMENT_ADV/adc_measurement_adv_conf.c **** /* This function would be called in the ADC_MEASUREMENT_Init() to initialize the SR lines of the
 286:../Dave/Generated/ADC_MEASUREMENT_ADV/adc_measurement_adv_conf.c ****  * Result event/channel event.
 287:../Dave/Generated/ADC_MEASUREMENT_ADV/adc_measurement_adv_conf.c ****  */
 288:../Dave/Generated/ADC_MEASUREMENT_ADV/adc_measurement_adv_conf.c **** static void ADC_W_event_config(void)
 289:../Dave/Generated/ADC_MEASUREMENT_ADV/adc_measurement_adv_conf.c **** {
 251              	 .loc 1 289 0
 252              	 .cfi_startproc
 253              	 
 254              	 
 255 0000 80B5     	 push {r7,lr}
 256              	.LCFI4:
 257              	 .cfi_def_cfa_offset 8
 258              	 .cfi_offset 7,-8
 259              	 .cfi_offset 14,-4
 260 0002 00AF     	 add r7,sp,#0
 261              	.LCFI5:
 262              	 .cfi_def_cfa_register 7
 290:../Dave/Generated/ADC_MEASUREMENT_ADV/adc_measurement_adv_conf.c **** 
 291:../Dave/Generated/ADC_MEASUREMENT_ADV/adc_measurement_adv_conf.c **** 	/* Result Event Node Mux Configuration for Channel_A (Group-2 channel-0 Result_Register-0)*/
 292:../Dave/Generated/ADC_MEASUREMENT_ADV/adc_measurement_adv_conf.c **** 	XMC_VADC_GROUP_SetResultInterruptNode(VADC_G2, 0U, XMC_VADC_SR_GROUP_SR1);
 263              	 .loc 1 292 0
 264 0004 0248     	 ldr r0,.L8
 265 0006 0021     	 movs r1,#0
 266 0008 0122     	 movs r2,#1
 267 000a FFF7FEFF 	 bl XMC_VADC_GROUP_SetResultInterruptNode
 293:../Dave/Generated/ADC_MEASUREMENT_ADV/adc_measurement_adv_conf.c **** 
 294:../Dave/Generated/ADC_MEASUREMENT_ADV/adc_measurement_adv_conf.c **** }
 268              	 .loc 1 294 0
 269 000e 80BD     	 pop {r7,pc}
 270              	.L9:
 271              	 .align 2
 272              	.L8:
 273 0010 004C0040 	 .word 1073761280
 274              	 .cfi_endproc
 275              	.LFE248:
 277              	 .section .rodata.ADC_W_Channel_A_ch_config,"a",%progbits
 278              	 .align 2
 281              	ADC_W_Channel_A_ch_config:
 282 0000 00       	 .byte 0
 283 0001 04       	 .byte 4
 284 0002 20       	 .byte 32
 285 0003 00       	 .byte 0
 286 0004 00000000 	 .word 0
 287 0008 01       	 .byte 1
 288 0009 FF       	 .byte -1
 289 000a 0000     	 .space 2
 290              	 .section .rodata.ADC_W_Channel_A_res_config,"a",%progbits
 291              	 .align 2
 294              	ADC_W_Channel_A_res_config:
 295 0000 0000     	 .space 2
 296 0002 00       	 .byte 0
 297 0003 80       	 .byte 128
 298              	 .global ADC_W_Channel_A_handle
 299              	 .section .rodata.ADC_W_Channel_A_handle,"a",%progbits
 300              	 .align 2
 303              	ADC_W_Channel_A_handle:
 304 0000 00000000 	 .word ADC_W_Channel_A_ch_config
 305 0004 00000000 	 .word ADC_W_Channel_A_res_config
 306 0008 02       	 .byte 2
 307 0009 00       	 .byte 0
 308 000a 0000     	 .space 2
 309              	 .section .rodata.ADC_W_Channel_A_queue_entry_0,"a",%progbits
 310              	 .align 2
 313              	ADC_W_Channel_A_queue_entry_0:
 314 0000 00000000 	 .word 0
 315 0004 00       	 .byte 0
 316 0005 00       	 .byte 0
 317 0006 01       	 .byte 1
 318 0007 01       	 .byte 1
 319 0008 00       	 .byte 0
 320 0009 00       	 .byte 0
 321 000a 0000     	 .space 2
 322              	 .section .data.ADC_W_queue_entries,"aw",%progbits
 323              	 .align 2
 326              	ADC_W_queue_entries:
 327 0000 00000000 	 .word ADC_W_Channel_A_queue_entry_0
 328              	 .section .data.ADC_W_channel_array,"aw",%progbits
 329              	 .align 2
 332              	ADC_W_channel_array:
 333 0000 00000000 	 .word ADC_W_Channel_A_handle
 334              	 .section .data.ADC_W_initialization_status,"aw",%progbits
 337              	ADC_W_initialization_status:
 338 0000 02       	 .byte 2
 339              	 .global ADC_W
 340              	 .section .rodata.ADC_W,"a",%progbits
 341              	 .align 2
 344              	ADC_W:
 345 0000 00000000 	 .word ADC_W_channel_array
 346 0004 00000000 	 .word ADC_W_queue_entries
 347 0008 00000000 	 .word ADC_W_event_config
 348 000c 00000000 	 .word ADC_QUEUE_2
 349 0010 00000000 	 .word ADC_W_initialization_status
 350 0014 02       	 .byte 2
 351 0015 02       	 .byte 2
 352 0016 01       	 .byte 1
 353 0017 01       	 .byte 1
 354 0018 01       	 .byte 1
 355 0019 000000   	 .space 3
 356              	 .text
 357              	.Letext0:
 358              	 .file 2 "c:\\davev4-64bit\\dave-4.3.2\\eclipse\\arm-gcc-49\\arm-none-eabi\\include\\machine\\_default_types.h"
 359              	 .file 3 "c:\\davev4-64bit\\dave-4.3.2\\eclipse\\arm-gcc-49\\arm-none-eabi\\include\\stdint.h"
 360              	 .file 4 "C:/Users/Mafish/Documents/XMCDev/Silniki2_0/Libraries/CMSIS/Infineon/XMC4500_series/Include/XMC4500.h"
 361              	 .file 5 "C:/Users/Mafish/Documents/XMCDev/Silniki2_0/Libraries/XMCLib/inc/xmc_vadc.h"
 362              	 .file 6 "C:/Users/Mafish/Documents/XMCDev/Silniki2_0/Dave/Generated/GLOBAL_ADC/global_adc.h"
 363              	 .file 7 "C:/Users/Mafish/Documents/XMCDev/Silniki2_0/Dave/Generated/ADC_QUEUE/adc_queue.h"
 364              	 .file 8 "../Dave/Generated/ADC_MEASUREMENT_ADV/adc_measurement_adv.h"
 365              	 .file 9 "C:/Users/Mafish/Documents/XMCDev/Silniki2_0/Libraries/CMSIS/Include/core_cm4.h"
 366              	 .file 10 "C:/Users/Mafish/Documents/XMCDev/Silniki2_0/Libraries/CMSIS/Infineon/XMC4500_series/Include/system_XMC4500.h"
 367              	 .file 11 "C:/Users/Mafish/Documents/XMCDev/Silniki2_0/Dave/Generated/ADC_QUEUE/ADC_QUEUE_Extern.h"